
Dirty_Dawg_Master.elf:     file format elf32-avr

Sections:
Idx Name          Size      VMA       LMA       File off  Algn
  0 .data         00000000  00800100  00800100  00000d2c  2**0
                  CONTENTS, ALLOC, LOAD, DATA
  1 .text         00000cb8  00000000  00000000  00000074  2**1
                  CONTENTS, ALLOC, LOAD, READONLY, CODE
  2 .bss          00000002  00800100  00800100  00000d2c  2**0
                  ALLOC
  3 .comment      00000030  00000000  00000000  00000d2c  2**0
                  CONTENTS, READONLY
  4 .note.gnu.avr.deviceinfo 0000003c  00000000  00000000  00000d5c  2**2
                  CONTENTS, READONLY

Disassembly of section .text:

00000000 <__vectors>:
   0:	0c 94 34 00 	jmp	0x68	; 0x68 <__ctors_end>
   4:	0c 94 51 00 	jmp	0xa2	; 0xa2 <__bad_interrupt>
   8:	0c 94 51 00 	jmp	0xa2	; 0xa2 <__bad_interrupt>
   c:	0c 94 51 00 	jmp	0xa2	; 0xa2 <__bad_interrupt>
  10:	0c 94 51 00 	jmp	0xa2	; 0xa2 <__bad_interrupt>
  14:	0c 94 51 00 	jmp	0xa2	; 0xa2 <__bad_interrupt>
  18:	0c 94 51 00 	jmp	0xa2	; 0xa2 <__bad_interrupt>
  1c:	0c 94 51 00 	jmp	0xa2	; 0xa2 <__bad_interrupt>
  20:	0c 94 51 00 	jmp	0xa2	; 0xa2 <__bad_interrupt>
  24:	0c 94 51 00 	jmp	0xa2	; 0xa2 <__bad_interrupt>
  28:	0c 94 51 00 	jmp	0xa2	; 0xa2 <__bad_interrupt>
  2c:	0c 94 51 00 	jmp	0xa2	; 0xa2 <__bad_interrupt>
  30:	0c 94 51 00 	jmp	0xa2	; 0xa2 <__bad_interrupt>
  34:	0c 94 51 00 	jmp	0xa2	; 0xa2 <__bad_interrupt>
  38:	0c 94 51 00 	jmp	0xa2	; 0xa2 <__bad_interrupt>
  3c:	0c 94 51 00 	jmp	0xa2	; 0xa2 <__bad_interrupt>
  40:	0c 94 51 00 	jmp	0xa2	; 0xa2 <__bad_interrupt>
  44:	0c 94 51 00 	jmp	0xa2	; 0xa2 <__bad_interrupt>
  48:	0c 94 51 00 	jmp	0xa2	; 0xa2 <__bad_interrupt>
  4c:	0c 94 51 00 	jmp	0xa2	; 0xa2 <__bad_interrupt>
  50:	0c 94 51 00 	jmp	0xa2	; 0xa2 <__bad_interrupt>
  54:	0c 94 51 00 	jmp	0xa2	; 0xa2 <__bad_interrupt>
  58:	0c 94 51 00 	jmp	0xa2	; 0xa2 <__bad_interrupt>
  5c:	0c 94 51 00 	jmp	0xa2	; 0xa2 <__bad_interrupt>
  60:	0c 94 51 00 	jmp	0xa2	; 0xa2 <__bad_interrupt>
  64:	0c 94 51 00 	jmp	0xa2	; 0xa2 <__bad_interrupt>

00000068 <__ctors_end>:
  68:	11 24       	eor	r1, r1
  6a:	1f be       	out	0x3f, r1	; 63
  6c:	cf ef       	ldi	r28, 0xFF	; 255
  6e:	d8 e0       	ldi	r29, 0x08	; 8
  70:	de bf       	out	0x3e, r29	; 62
  72:	cd bf       	out	0x3d, r28	; 61

00000074 <__do_copy_data>:
  74:	11 e0       	ldi	r17, 0x01	; 1
  76:	a0 e0       	ldi	r26, 0x00	; 0
  78:	b1 e0       	ldi	r27, 0x01	; 1
  7a:	e8 eb       	ldi	r30, 0xB8	; 184
  7c:	fc e0       	ldi	r31, 0x0C	; 12
  7e:	02 c0       	rjmp	.+4      	; 0x84 <__do_copy_data+0x10>
  80:	05 90       	lpm	r0, Z+
  82:	0d 92       	st	X+, r0
  84:	a0 30       	cpi	r26, 0x00	; 0
  86:	b1 07       	cpc	r27, r17
  88:	d9 f7       	brne	.-10     	; 0x80 <__do_copy_data+0xc>

0000008a <__do_clear_bss>:
  8a:	21 e0       	ldi	r18, 0x01	; 1
  8c:	a0 e0       	ldi	r26, 0x00	; 0
  8e:	b1 e0       	ldi	r27, 0x01	; 1
  90:	01 c0       	rjmp	.+2      	; 0x94 <.do_clear_bss_start>

00000092 <.do_clear_bss_loop>:
  92:	1d 92       	st	X+, r1

00000094 <.do_clear_bss_start>:
  94:	a2 30       	cpi	r26, 0x02	; 2
  96:	b2 07       	cpc	r27, r18
  98:	e1 f7       	brne	.-8      	; 0x92 <.do_clear_bss_loop>
  9a:	0e 94 ab 05 	call	0xb56	; 0xb56 <main>
  9e:	0c 94 5a 06 	jmp	0xcb4	; 0xcb4 <_exit>

000000a2 <__bad_interrupt>:
  a2:	0c 94 00 00 	jmp	0	; 0x0 <__vectors>

000000a6 <System_Init>:
  a6:	10 92 01 01 	sts	0x0101, r1
  aa:	10 92 00 01 	sts	0x0100, r1
  ae:	8f e0       	ldi	r24, 0x0F	; 15
  b0:	84 b9       	out	0x04, r24	; 4
  b2:	88 ee       	ldi	r24, 0xE8	; 232
  b4:	8a b9       	out	0x0a, r24	; 10
  b6:	2f ef       	ldi	r18, 0xFF	; 255
  b8:	89 e6       	ldi	r24, 0x69	; 105
  ba:	98 e1       	ldi	r25, 0x18	; 24
  bc:	21 50       	subi	r18, 0x01	; 1
  be:	80 40       	sbci	r24, 0x00	; 0
  c0:	90 40       	sbci	r25, 0x00	; 0
  c2:	e1 f7       	brne	.-8      	; 0xbc <System_Init+0x16>
  c4:	00 c0       	rjmp	.+0      	; 0xc6 <System_Init+0x20>
  c6:	00 00       	nop
  c8:	87 e0       	ldi	r24, 0x07	; 7
  ca:	85 b9       	out	0x05, r24	; 5
  cc:	2f ef       	ldi	r18, 0xFF	; 255
  ce:	89 e6       	ldi	r24, 0x69	; 105
  d0:	98 e1       	ldi	r25, 0x18	; 24
  d2:	21 50       	subi	r18, 0x01	; 1
  d4:	80 40       	sbci	r24, 0x00	; 0
  d6:	90 40       	sbci	r25, 0x00	; 0
  d8:	e1 f7       	brne	.-8      	; 0xd2 <System_Init+0x2c>
  da:	00 c0       	rjmp	.+0      	; 0xdc <System_Init+0x36>
  dc:	00 00       	nop
  de:	15 b8       	out	0x05, r1	; 5
  e0:	81 e0       	ldi	r24, 0x01	; 1
  e2:	90 e0       	ldi	r25, 0x00	; 0
  e4:	90 93 01 01 	sts	0x0101, r25
  e8:	80 93 00 01 	sts	0x0100, r24
  ec:	08 95       	ret

000000ee <UART_Init>:
  ee:	22 e0       	ldi	r18, 0x02	; 2
  f0:	20 93 c0 00 	sts	0x00C0, r18
  f4:	9c 01       	movw	r18, r24
  f6:	40 e0       	ldi	r20, 0x00	; 0
  f8:	50 e0       	ldi	r21, 0x00	; 0
  fa:	60 e4       	ldi	r22, 0x40	; 64
  fc:	72 e4       	ldi	r23, 0x42	; 66
  fe:	8f e0       	ldi	r24, 0x0F	; 15
 100:	90 e0       	ldi	r25, 0x00	; 0
 102:	0e 94 3b 06 	call	0xc76	; 0xc76 <__divmodsi4>
 106:	21 50       	subi	r18, 0x01	; 1
 108:	31 09       	sbc	r19, r1
 10a:	30 93 c5 00 	sts	0x00C5, r19
 10e:	20 93 c4 00 	sts	0x00C4, r18
 112:	88 e1       	ldi	r24, 0x18	; 24
 114:	80 93 c1 00 	sts	0x00C1, r24
 118:	e2 ec       	ldi	r30, 0xC2	; 194
 11a:	f0 e0       	ldi	r31, 0x00	; 0
 11c:	86 e0       	ldi	r24, 0x06	; 6
 11e:	80 83       	st	Z, r24
 120:	80 81       	ld	r24, Z
 122:	80 83       	st	Z, r24
 124:	80 91 00 01 	lds	r24, 0x0100
 128:	90 91 01 01 	lds	r25, 0x0101
 12c:	82 60       	ori	r24, 0x02	; 2
 12e:	90 93 01 01 	sts	0x0101, r25
 132:	80 93 00 01 	sts	0x0100, r24
 136:	08 95       	ret

00000138 <BT_Send>:
 138:	90 91 c0 00 	lds	r25, 0x00C0
 13c:	95 ff       	sbrs	r25, 5
 13e:	fc cf       	rjmp	.-8      	; 0x138 <BT_Send>
 140:	80 93 c6 00 	sts	0x00C6, r24
 144:	08 95       	ret

00000146 <Error>:
 146:	c8 2f       	mov	r28, r24
 148:	c1 2c       	mov	r12, r1
 14a:	d1 2c       	mov	r13, r1
 14c:	76 01       	movw	r14, r12
 14e:	80 e1       	ldi	r24, 0x10	; 16
 150:	88 2e       	mov	r8, r24
 152:	87 e2       	ldi	r24, 0x27	; 39
 154:	98 2e       	mov	r9, r24
 156:	a1 2c       	mov	r10, r1
 158:	b1 2c       	mov	r11, r1
 15a:	d2 e0       	ldi	r29, 0x02	; 2
 15c:	c7 01       	movw	r24, r14
 15e:	b6 01       	movw	r22, r12
 160:	a5 01       	movw	r20, r10
 162:	94 01       	movw	r18, r8
 164:	0e 94 19 06 	call	0xc32	; 0xc32 <__udivmodsi4>
 168:	67 2b       	or	r22, r23
 16a:	68 2b       	or	r22, r24
 16c:	69 2b       	or	r22, r25
 16e:	21 f4       	brne	.+8      	; 0x178 <Error+0x32>
 170:	d3 b9       	out	0x03, r29	; 3
 172:	8c 2f       	mov	r24, r28
 174:	0e 94 9c 00 	call	0x138	; 0x138 <BT_Send>
 178:	8f ef       	ldi	r24, 0xFF	; 255
 17a:	c8 1a       	sub	r12, r24
 17c:	d8 0a       	sbc	r13, r24
 17e:	e8 0a       	sbc	r14, r24
 180:	f8 0a       	sbc	r15, r24
 182:	ec cf       	rjmp	.-40     	; 0x15c <Error+0x16>

00000184 <LCD_Init>:
 184:	df 92       	push	r13
 186:	ef 92       	push	r14
 188:	ff 92       	push	r15
 18a:	0f 93       	push	r16
 18c:	1f 93       	push	r17
 18e:	cf 93       	push	r28
 190:	df 93       	push	r29
 192:	c8 2f       	mov	r28, r24
 194:	2f ef       	ldi	r18, 0xFF	; 255
 196:	89 e6       	ldi	r24, 0x69	; 105
 198:	98 e1       	ldi	r25, 0x18	; 24
 19a:	21 50       	subi	r18, 0x01	; 1
 19c:	80 40       	sbci	r24, 0x00	; 0
 19e:	90 40       	sbci	r25, 0x00	; 0
 1a0:	e1 f7       	brne	.-8      	; 0x19a <LCD_Init+0x16>
 1a2:	00 c0       	rjmp	.+0      	; 0x1a4 <LCD_Init+0x20>
 1a4:	00 00       	nop
 1a6:	84 ea       	ldi	r24, 0xA4	; 164
 1a8:	80 93 bc 00 	sts	0x00BC, r24
 1ac:	0e 94 14 06 	call	0xc28	; 0xc28 <TWI_Busy>
 1b0:	89 2b       	or	r24, r25
 1b2:	e1 f3       	breq	.-8      	; 0x1ac <LCD_Init+0x28>
 1b4:	80 91 b9 00 	lds	r24, 0x00B9
 1b8:	88 7f       	andi	r24, 0xF8	; 248
 1ba:	88 30       	cpi	r24, 0x08	; 8
 1bc:	21 f0       	breq	.+8      	; 0x1c6 <LCD_Init+0x42>
 1be:	88 e0       	ldi	r24, 0x08	; 8
 1c0:	90 e0       	ldi	r25, 0x00	; 0
 1c2:	0e 94 a3 00 	call	0x146	; 0x146 <Error>
 1c6:	cc 0f       	add	r28, r28
 1c8:	c1 60       	ori	r28, 0x01	; 1
 1ca:	c0 93 bb 00 	sts	0x00BB, r28
 1ce:	84 e8       	ldi	r24, 0x84	; 132
 1d0:	80 93 bc 00 	sts	0x00BC, r24
 1d4:	0e 94 14 06 	call	0xc28	; 0xc28 <TWI_Busy>
 1d8:	89 2b       	or	r24, r25
 1da:	e1 f3       	breq	.-8      	; 0x1d4 <LCD_Init+0x50>
 1dc:	80 91 b9 00 	lds	r24, 0x00B9
 1e0:	88 7f       	andi	r24, 0xF8	; 248
 1e2:	80 34       	cpi	r24, 0x40	; 64
 1e4:	31 f0       	breq	.+12     	; 0x1f2 <LCD_Init+0x6e>
 1e6:	80 91 b9 00 	lds	r24, 0x00B9
 1ea:	88 7f       	andi	r24, 0xF8	; 248
 1ec:	90 e0       	ldi	r25, 0x00	; 0
 1ee:	0e 94 a3 00 	call	0x146	; 0x146 <Error>
 1f2:	10 92 bb 00 	sts	0x00BB, r1
 1f6:	84 e8       	ldi	r24, 0x84	; 132
 1f8:	80 93 bc 00 	sts	0x00BC, r24
 1fc:	0e 94 14 06 	call	0xc28	; 0xc28 <TWI_Busy>
 200:	89 2b       	or	r24, r25
 202:	e1 f3       	breq	.-8      	; 0x1fc <LCD_Init+0x78>
 204:	80 91 b9 00 	lds	r24, 0x00B9
 208:	88 7f       	andi	r24, 0xF8	; 248
 20a:	88 35       	cpi	r24, 0x58	; 88
 20c:	31 f0       	breq	.+12     	; 0x21a <LCD_Init+0x96>
 20e:	80 91 b9 00 	lds	r24, 0x00B9
 212:	88 7f       	andi	r24, 0xF8	; 248
 214:	90 e0       	ldi	r25, 0x00	; 0
 216:	0e 94 a3 00 	call	0x146	; 0x146 <Error>
 21a:	84 e9       	ldi	r24, 0x94	; 148
 21c:	80 93 bc 00 	sts	0x00BC, r24
 220:	2f ef       	ldi	r18, 0xFF	; 255
 222:	89 e6       	ldi	r24, 0x69	; 105
 224:	98 e1       	ldi	r25, 0x18	; 24
 226:	21 50       	subi	r18, 0x01	; 1
 228:	80 40       	sbci	r24, 0x00	; 0
 22a:	90 40       	sbci	r25, 0x00	; 0
 22c:	e1 f7       	brne	.-8      	; 0x226 <LCD_Init+0xa2>
 22e:	00 c0       	rjmp	.+0      	; 0x230 <LCD_Init+0xac>
 230:	00 00       	nop
 232:	84 ea       	ldi	r24, 0xA4	; 164
 234:	80 93 bc 00 	sts	0x00BC, r24
 238:	0e 94 14 06 	call	0xc28	; 0xc28 <TWI_Busy>
 23c:	89 2b       	or	r24, r25
 23e:	e1 f3       	breq	.-8      	; 0x238 <LCD_Init+0xb4>
 240:	80 91 b9 00 	lds	r24, 0x00B9
 244:	88 7f       	andi	r24, 0xF8	; 248
 246:	88 30       	cpi	r24, 0x08	; 8
 248:	21 f0       	breq	.+8      	; 0x252 <LCD_Init+0xce>
 24a:	88 e0       	ldi	r24, 0x08	; 8
 24c:	90 e0       	ldi	r25, 0x00	; 0
 24e:	0e 94 a3 00 	call	0x146	; 0x146 <Error>
 252:	c0 93 bb 00 	sts	0x00BB, r28
 256:	84 e8       	ldi	r24, 0x84	; 132
 258:	80 93 bc 00 	sts	0x00BC, r24
 25c:	0e 94 14 06 	call	0xc28	; 0xc28 <TWI_Busy>
 260:	89 2b       	or	r24, r25
 262:	e1 f3       	breq	.-8      	; 0x25c <LCD_Init+0xd8>
 264:	80 91 b9 00 	lds	r24, 0x00B9
 268:	88 7f       	andi	r24, 0xF8	; 248
 26a:	80 34       	cpi	r24, 0x40	; 64
 26c:	31 f0       	breq	.+12     	; 0x27a <LCD_Init+0xf6>
 26e:	80 91 b9 00 	lds	r24, 0x00B9
 272:	88 7f       	andi	r24, 0xF8	; 248
 274:	90 e0       	ldi	r25, 0x00	; 0
 276:	0e 94 a3 00 	call	0x146	; 0x146 <Error>
 27a:	83 e0       	ldi	r24, 0x03	; 3
 27c:	80 93 bb 00 	sts	0x00BB, r24
 280:	84 e8       	ldi	r24, 0x84	; 132
 282:	80 93 bc 00 	sts	0x00BC, r24
 286:	0e 94 14 06 	call	0xc28	; 0xc28 <TWI_Busy>
 28a:	89 2b       	or	r24, r25
 28c:	e1 f3       	breq	.-8      	; 0x286 <LCD_Init+0x102>
 28e:	80 91 b9 00 	lds	r24, 0x00B9
 292:	88 7f       	andi	r24, 0xF8	; 248
 294:	88 35       	cpi	r24, 0x58	; 88
 296:	31 f0       	breq	.+12     	; 0x2a4 <LCD_Init+0x120>
 298:	80 91 b9 00 	lds	r24, 0x00B9
 29c:	88 7f       	andi	r24, 0xF8	; 248
 29e:	90 e0       	ldi	r25, 0x00	; 0
 2a0:	0e 94 a3 00 	call	0x146	; 0x146 <Error>
 2a4:	84 e9       	ldi	r24, 0x94	; 148
 2a6:	80 93 bc 00 	sts	0x00BC, r24
 2aa:	2f ef       	ldi	r18, 0xFF	; 255
 2ac:	89 e6       	ldi	r24, 0x69	; 105
 2ae:	98 e1       	ldi	r25, 0x18	; 24
 2b0:	21 50       	subi	r18, 0x01	; 1
 2b2:	80 40       	sbci	r24, 0x00	; 0
 2b4:	90 40       	sbci	r25, 0x00	; 0
 2b6:	e1 f7       	brne	.-8      	; 0x2b0 <LCD_Init+0x12c>
 2b8:	00 c0       	rjmp	.+0      	; 0x2ba <LCD_Init+0x136>
 2ba:	00 00       	nop
 2bc:	03 e0       	ldi	r16, 0x03	; 3
 2be:	10 e0       	ldi	r17, 0x00	; 0
 2c0:	84 ea       	ldi	r24, 0xA4	; 164
 2c2:	e8 2e       	mov	r14, r24
 2c4:	d4 e8       	ldi	r29, 0x84	; 132
 2c6:	90 e1       	ldi	r25, 0x10	; 16
 2c8:	d9 2e       	mov	r13, r25
 2ca:	24 e9       	ldi	r18, 0x94	; 148
 2cc:	f2 2e       	mov	r15, r18
 2ce:	e0 92 bc 00 	sts	0x00BC, r14
 2d2:	0e 94 14 06 	call	0xc28	; 0xc28 <TWI_Busy>
 2d6:	89 2b       	or	r24, r25
 2d8:	e1 f3       	breq	.-8      	; 0x2d2 <LCD_Init+0x14e>
 2da:	80 91 b9 00 	lds	r24, 0x00B9
 2de:	88 7f       	andi	r24, 0xF8	; 248
 2e0:	88 30       	cpi	r24, 0x08	; 8
 2e2:	21 f0       	breq	.+8      	; 0x2ec <LCD_Init+0x168>
 2e4:	88 e0       	ldi	r24, 0x08	; 8
 2e6:	90 e0       	ldi	r25, 0x00	; 0
 2e8:	0e 94 a3 00 	call	0x146	; 0x146 <Error>
 2ec:	c0 93 bb 00 	sts	0x00BB, r28
 2f0:	d0 93 bc 00 	sts	0x00BC, r29
 2f4:	0e 94 14 06 	call	0xc28	; 0xc28 <TWI_Busy>
 2f8:	89 2b       	or	r24, r25
 2fa:	e1 f3       	breq	.-8      	; 0x2f4 <LCD_Init+0x170>
 2fc:	80 91 b9 00 	lds	r24, 0x00B9
 300:	88 7f       	andi	r24, 0xF8	; 248
 302:	80 34       	cpi	r24, 0x40	; 64
 304:	21 f0       	breq	.+8      	; 0x30e <LCD_Init+0x18a>
 306:	80 e4       	ldi	r24, 0x40	; 64
 308:	90 e0       	ldi	r25, 0x00	; 0
 30a:	0e 94 a3 00 	call	0x146	; 0x146 <Error>
 30e:	d0 92 bb 00 	sts	0x00BB, r13
 312:	d0 93 bc 00 	sts	0x00BC, r29
 316:	0e 94 14 06 	call	0xc28	; 0xc28 <TWI_Busy>
 31a:	89 2b       	or	r24, r25
 31c:	e1 f3       	breq	.-8      	; 0x316 <LCD_Init+0x192>
 31e:	80 91 b9 00 	lds	r24, 0x00B9
 322:	88 7f       	andi	r24, 0xF8	; 248
 324:	88 35       	cpi	r24, 0x58	; 88
 326:	21 f0       	breq	.+8      	; 0x330 <LCD_Init+0x1ac>
 328:	88 e5       	ldi	r24, 0x58	; 88
 32a:	90 e0       	ldi	r25, 0x00	; 0
 32c:	0e 94 a3 00 	call	0x146	; 0x146 <Error>
 330:	f0 92 bc 00 	sts	0x00BC, r15
 334:	2f ef       	ldi	r18, 0xFF	; 255
 336:	84 e3       	ldi	r24, 0x34	; 52
 338:	9c e0       	ldi	r25, 0x0C	; 12
 33a:	21 50       	subi	r18, 0x01	; 1
 33c:	80 40       	sbci	r24, 0x00	; 0
 33e:	90 40       	sbci	r25, 0x00	; 0
 340:	e1 f7       	brne	.-8      	; 0x33a <LCD_Init+0x1b6>
 342:	00 c0       	rjmp	.+0      	; 0x344 <LCD_Init+0x1c0>
 344:	00 00       	nop
 346:	e0 92 bc 00 	sts	0x00BC, r14
 34a:	0e 94 14 06 	call	0xc28	; 0xc28 <TWI_Busy>
 34e:	89 2b       	or	r24, r25
 350:	e1 f3       	breq	.-8      	; 0x34a <LCD_Init+0x1c6>
 352:	80 91 b9 00 	lds	r24, 0x00B9
 356:	88 7f       	andi	r24, 0xF8	; 248
 358:	88 30       	cpi	r24, 0x08	; 8
 35a:	21 f0       	breq	.+8      	; 0x364 <LCD_Init+0x1e0>
 35c:	88 e0       	ldi	r24, 0x08	; 8
 35e:	90 e0       	ldi	r25, 0x00	; 0
 360:	0e 94 a3 00 	call	0x146	; 0x146 <Error>
 364:	c0 93 bb 00 	sts	0x00BB, r28
 368:	d0 93 bc 00 	sts	0x00BC, r29
 36c:	0e 94 14 06 	call	0xc28	; 0xc28 <TWI_Busy>
 370:	89 2b       	or	r24, r25
 372:	e1 f3       	breq	.-8      	; 0x36c <LCD_Init+0x1e8>
 374:	80 91 b9 00 	lds	r24, 0x00B9
 378:	88 7f       	andi	r24, 0xF8	; 248
 37a:	80 34       	cpi	r24, 0x40	; 64
 37c:	31 f0       	breq	.+12     	; 0x38a <LCD_Init+0x206>
 37e:	80 91 b9 00 	lds	r24, 0x00B9
 382:	88 7f       	andi	r24, 0xF8	; 248
 384:	90 e0       	ldi	r25, 0x00	; 0
 386:	0e 94 a3 00 	call	0x146	; 0x146 <Error>
 38a:	10 92 bb 00 	sts	0x00BB, r1
 38e:	d0 93 bc 00 	sts	0x00BC, r29
 392:	0e 94 14 06 	call	0xc28	; 0xc28 <TWI_Busy>
 396:	89 2b       	or	r24, r25
 398:	e1 f3       	breq	.-8      	; 0x392 <LCD_Init+0x20e>
 39a:	80 91 b9 00 	lds	r24, 0x00B9
 39e:	88 7f       	andi	r24, 0xF8	; 248
 3a0:	88 35       	cpi	r24, 0x58	; 88
 3a2:	31 f0       	breq	.+12     	; 0x3b0 <LCD_Init+0x22c>
 3a4:	80 91 b9 00 	lds	r24, 0x00B9
 3a8:	88 7f       	andi	r24, 0xF8	; 248
 3aa:	90 e0       	ldi	r25, 0x00	; 0
 3ac:	0e 94 a3 00 	call	0x146	; 0x146 <Error>
 3b0:	f0 92 bc 00 	sts	0x00BC, r15
 3b4:	2f ef       	ldi	r18, 0xFF	; 255
 3b6:	84 e3       	ldi	r24, 0x34	; 52
 3b8:	9c e0       	ldi	r25, 0x0C	; 12
 3ba:	21 50       	subi	r18, 0x01	; 1
 3bc:	80 40       	sbci	r24, 0x00	; 0
 3be:	90 40       	sbci	r25, 0x00	; 0
 3c0:	e1 f7       	brne	.-8      	; 0x3ba <LCD_Init+0x236>
 3c2:	00 c0       	rjmp	.+0      	; 0x3c4 <LCD_Init+0x240>
 3c4:	00 00       	nop
 3c6:	01 50       	subi	r16, 0x01	; 1
 3c8:	11 09       	sbc	r17, r1
 3ca:	09 f0       	breq	.+2      	; 0x3ce <LCD_Init+0x24a>
 3cc:	80 cf       	rjmp	.-256    	; 0x2ce <LCD_Init+0x14a>
 3ce:	84 ea       	ldi	r24, 0xA4	; 164
 3d0:	80 93 bc 00 	sts	0x00BC, r24
 3d4:	0e 94 14 06 	call	0xc28	; 0xc28 <TWI_Busy>
 3d8:	89 2b       	or	r24, r25
 3da:	e1 f3       	breq	.-8      	; 0x3d4 <LCD_Init+0x250>
 3dc:	80 91 b9 00 	lds	r24, 0x00B9
 3e0:	88 7f       	andi	r24, 0xF8	; 248
 3e2:	88 30       	cpi	r24, 0x08	; 8
 3e4:	21 f0       	breq	.+8      	; 0x3ee <LCD_Init+0x26a>
 3e6:	88 e0       	ldi	r24, 0x08	; 8
 3e8:	90 e0       	ldi	r25, 0x00	; 0
 3ea:	0e 94 a3 00 	call	0x146	; 0x146 <Error>
 3ee:	c0 93 bb 00 	sts	0x00BB, r28
 3f2:	84 e8       	ldi	r24, 0x84	; 132
 3f4:	80 93 bc 00 	sts	0x00BC, r24
 3f8:	0e 94 14 06 	call	0xc28	; 0xc28 <TWI_Busy>
 3fc:	89 2b       	or	r24, r25
 3fe:	e1 f3       	breq	.-8      	; 0x3f8 <LCD_Init+0x274>
 400:	80 91 b9 00 	lds	r24, 0x00B9
 404:	88 7f       	andi	r24, 0xF8	; 248
 406:	80 34       	cpi	r24, 0x40	; 64
 408:	31 f0       	breq	.+12     	; 0x416 <LCD_Init+0x292>
 40a:	80 91 b9 00 	lds	r24, 0x00B9
 40e:	88 7f       	andi	r24, 0xF8	; 248
 410:	90 e0       	ldi	r25, 0x00	; 0
 412:	0e 94 a3 00 	call	0x146	; 0x146 <Error>
 416:	82 e0       	ldi	r24, 0x02	; 2
 418:	80 93 bb 00 	sts	0x00BB, r24
 41c:	84 e8       	ldi	r24, 0x84	; 132
 41e:	80 93 bc 00 	sts	0x00BC, r24
 422:	0e 94 14 06 	call	0xc28	; 0xc28 <TWI_Busy>
 426:	89 2b       	or	r24, r25
 428:	e1 f3       	breq	.-8      	; 0x422 <LCD_Init+0x29e>
 42a:	80 91 b9 00 	lds	r24, 0x00B9
 42e:	88 7f       	andi	r24, 0xF8	; 248
 430:	88 35       	cpi	r24, 0x58	; 88
 432:	31 f0       	breq	.+12     	; 0x440 <LCD_Init+0x2bc>
 434:	80 91 b9 00 	lds	r24, 0x00B9
 438:	88 7f       	andi	r24, 0xF8	; 248
 43a:	90 e0       	ldi	r25, 0x00	; 0
 43c:	0e 94 a3 00 	call	0x146	; 0x146 <Error>
 440:	84 e9       	ldi	r24, 0x94	; 148
 442:	80 93 bc 00 	sts	0x00BC, r24
 446:	2f ef       	ldi	r18, 0xFF	; 255
 448:	89 e6       	ldi	r24, 0x69	; 105
 44a:	98 e1       	ldi	r25, 0x18	; 24
 44c:	21 50       	subi	r18, 0x01	; 1
 44e:	80 40       	sbci	r24, 0x00	; 0
 450:	90 40       	sbci	r25, 0x00	; 0
 452:	e1 f7       	brne	.-8      	; 0x44c <LCD_Init+0x2c8>
 454:	00 c0       	rjmp	.+0      	; 0x456 <LCD_Init+0x2d2>
 456:	00 00       	nop
 458:	84 ea       	ldi	r24, 0xA4	; 164
 45a:	80 93 bc 00 	sts	0x00BC, r24
 45e:	0e 94 14 06 	call	0xc28	; 0xc28 <TWI_Busy>
 462:	89 2b       	or	r24, r25
 464:	e1 f3       	breq	.-8      	; 0x45e <LCD_Init+0x2da>
 466:	80 91 b9 00 	lds	r24, 0x00B9
 46a:	88 7f       	andi	r24, 0xF8	; 248
 46c:	88 30       	cpi	r24, 0x08	; 8
 46e:	21 f0       	breq	.+8      	; 0x478 <LCD_Init+0x2f4>
 470:	88 e0       	ldi	r24, 0x08	; 8
 472:	90 e0       	ldi	r25, 0x00	; 0
 474:	0e 94 a3 00 	call	0x146	; 0x146 <Error>
 478:	c0 93 bb 00 	sts	0x00BB, r28
 47c:	84 e8       	ldi	r24, 0x84	; 132
 47e:	80 93 bc 00 	sts	0x00BC, r24
 482:	0e 94 14 06 	call	0xc28	; 0xc28 <TWI_Busy>
 486:	89 2b       	or	r24, r25
 488:	e1 f3       	breq	.-8      	; 0x482 <LCD_Init+0x2fe>
 48a:	80 91 b9 00 	lds	r24, 0x00B9
 48e:	88 7f       	andi	r24, 0xF8	; 248
 490:	80 34       	cpi	r24, 0x40	; 64
 492:	21 f0       	breq	.+8      	; 0x49c <LCD_Init+0x318>
 494:	80 e4       	ldi	r24, 0x40	; 64
 496:	90 e0       	ldi	r25, 0x00	; 0
 498:	0e 94 a3 00 	call	0x146	; 0x146 <Error>
 49c:	80 e1       	ldi	r24, 0x10	; 16
 49e:	80 93 bb 00 	sts	0x00BB, r24
 4a2:	84 e8       	ldi	r24, 0x84	; 132
 4a4:	80 93 bc 00 	sts	0x00BC, r24
 4a8:	0e 94 14 06 	call	0xc28	; 0xc28 <TWI_Busy>
 4ac:	89 2b       	or	r24, r25
 4ae:	e1 f3       	breq	.-8      	; 0x4a8 <LCD_Init+0x324>
 4b0:	80 91 b9 00 	lds	r24, 0x00B9
 4b4:	88 7f       	andi	r24, 0xF8	; 248
 4b6:	88 35       	cpi	r24, 0x58	; 88
 4b8:	21 f0       	breq	.+8      	; 0x4c2 <LCD_Init+0x33e>
 4ba:	88 e5       	ldi	r24, 0x58	; 88
 4bc:	90 e0       	ldi	r25, 0x00	; 0
 4be:	0e 94 a3 00 	call	0x146	; 0x146 <Error>
 4c2:	84 e9       	ldi	r24, 0x94	; 148
 4c4:	80 93 bc 00 	sts	0x00BC, r24
 4c8:	2f ef       	ldi	r18, 0xFF	; 255
 4ca:	84 e3       	ldi	r24, 0x34	; 52
 4cc:	9c e0       	ldi	r25, 0x0C	; 12
 4ce:	21 50       	subi	r18, 0x01	; 1
 4d0:	80 40       	sbci	r24, 0x00	; 0
 4d2:	90 40       	sbci	r25, 0x00	; 0
 4d4:	e1 f7       	brne	.-8      	; 0x4ce <LCD_Init+0x34a>
 4d6:	00 c0       	rjmp	.+0      	; 0x4d8 <LCD_Init+0x354>
 4d8:	00 00       	nop
 4da:	84 ea       	ldi	r24, 0xA4	; 164
 4dc:	80 93 bc 00 	sts	0x00BC, r24
 4e0:	0e 94 14 06 	call	0xc28	; 0xc28 <TWI_Busy>
 4e4:	89 2b       	or	r24, r25
 4e6:	e1 f3       	breq	.-8      	; 0x4e0 <LCD_Init+0x35c>
 4e8:	80 91 b9 00 	lds	r24, 0x00B9
 4ec:	88 7f       	andi	r24, 0xF8	; 248
 4ee:	88 30       	cpi	r24, 0x08	; 8
 4f0:	21 f0       	breq	.+8      	; 0x4fa <LCD_Init+0x376>
 4f2:	88 e0       	ldi	r24, 0x08	; 8
 4f4:	90 e0       	ldi	r25, 0x00	; 0
 4f6:	0e 94 a3 00 	call	0x146	; 0x146 <Error>
 4fa:	c0 93 bb 00 	sts	0x00BB, r28
 4fe:	84 e8       	ldi	r24, 0x84	; 132
 500:	80 93 bc 00 	sts	0x00BC, r24
 504:	0e 94 14 06 	call	0xc28	; 0xc28 <TWI_Busy>
 508:	89 2b       	or	r24, r25
 50a:	e1 f3       	breq	.-8      	; 0x504 <LCD_Init+0x380>
 50c:	80 91 b9 00 	lds	r24, 0x00B9
 510:	88 7f       	andi	r24, 0xF8	; 248
 512:	80 34       	cpi	r24, 0x40	; 64
 514:	21 f0       	breq	.+8      	; 0x51e <LCD_Init+0x39a>
 516:	80 e4       	ldi	r24, 0x40	; 64
 518:	90 e0       	ldi	r25, 0x00	; 0
 51a:	0e 94 a3 00 	call	0x146	; 0x146 <Error>
 51e:	10 92 bb 00 	sts	0x00BB, r1
 522:	84 e8       	ldi	r24, 0x84	; 132
 524:	80 93 bc 00 	sts	0x00BC, r24
 528:	0e 94 14 06 	call	0xc28	; 0xc28 <TWI_Busy>
 52c:	89 2b       	or	r24, r25
 52e:	e1 f3       	breq	.-8      	; 0x528 <LCD_Init+0x3a4>
 530:	80 91 b9 00 	lds	r24, 0x00B9
 534:	88 7f       	andi	r24, 0xF8	; 248
 536:	88 35       	cpi	r24, 0x58	; 88
 538:	21 f0       	breq	.+8      	; 0x542 <LCD_Init+0x3be>
 53a:	88 e5       	ldi	r24, 0x58	; 88
 53c:	90 e0       	ldi	r25, 0x00	; 0
 53e:	0e 94 a3 00 	call	0x146	; 0x146 <Error>
 542:	84 e9       	ldi	r24, 0x94	; 148
 544:	80 93 bc 00 	sts	0x00BC, r24
 548:	2f ef       	ldi	r18, 0xFF	; 255
 54a:	89 e6       	ldi	r24, 0x69	; 105
 54c:	98 e1       	ldi	r25, 0x18	; 24
 54e:	21 50       	subi	r18, 0x01	; 1
 550:	80 40       	sbci	r24, 0x00	; 0
 552:	90 40       	sbci	r25, 0x00	; 0
 554:	e1 f7       	brne	.-8      	; 0x54e <LCD_Init+0x3ca>
 556:	00 c0       	rjmp	.+0      	; 0x558 <LCD_Init+0x3d4>
 558:	00 00       	nop
 55a:	df 91       	pop	r29
 55c:	cf 91       	pop	r28
 55e:	1f 91       	pop	r17
 560:	0f 91       	pop	r16
 562:	ff 90       	pop	r15
 564:	ef 90       	pop	r14
 566:	df 90       	pop	r13
 568:	08 95       	ret

0000056a <LCD_toggle>:
 56a:	84 ea       	ldi	r24, 0xA4	; 164
 56c:	80 93 bc 00 	sts	0x00BC, r24
 570:	0e 94 14 06 	call	0xc28	; 0xc28 <TWI_Busy>
 574:	89 2b       	or	r24, r25
 576:	e1 f3       	breq	.-8      	; 0x570 <LCD_toggle+0x6>
 578:	80 91 b9 00 	lds	r24, 0x00B9
 57c:	88 7f       	andi	r24, 0xF8	; 248
 57e:	88 30       	cpi	r24, 0x08	; 8
 580:	21 f0       	breq	.+8      	; 0x58a <LCD_toggle+0x20>
 582:	88 e0       	ldi	r24, 0x08	; 8
 584:	90 e0       	ldi	r25, 0x00	; 0
 586:	0e 94 a3 00 	call	0x146	; 0x146 <Error>
 58a:	8f e4       	ldi	r24, 0x4F	; 79
 58c:	80 93 bb 00 	sts	0x00BB, r24
 590:	84 e8       	ldi	r24, 0x84	; 132
 592:	80 93 bc 00 	sts	0x00BC, r24
 596:	0e 94 14 06 	call	0xc28	; 0xc28 <TWI_Busy>
 59a:	89 2b       	or	r24, r25
 59c:	e1 f3       	breq	.-8      	; 0x596 <LCD_toggle+0x2c>
 59e:	80 91 b9 00 	lds	r24, 0x00B9
 5a2:	88 7f       	andi	r24, 0xF8	; 248
 5a4:	80 34       	cpi	r24, 0x40	; 64
 5a6:	21 f0       	breq	.+8      	; 0x5b0 <LCD_toggle+0x46>
 5a8:	80 e4       	ldi	r24, 0x40	; 64
 5aa:	90 e0       	ldi	r25, 0x00	; 0
 5ac:	0e 94 a3 00 	call	0x146	; 0x146 <Error>
 5b0:	80 e1       	ldi	r24, 0x10	; 16
 5b2:	80 93 bb 00 	sts	0x00BB, r24
 5b6:	84 e8       	ldi	r24, 0x84	; 132
 5b8:	80 93 bc 00 	sts	0x00BC, r24
 5bc:	0e 94 14 06 	call	0xc28	; 0xc28 <TWI_Busy>
 5c0:	89 2b       	or	r24, r25
 5c2:	e1 f3       	breq	.-8      	; 0x5bc <LCD_toggle+0x52>
 5c4:	80 91 b9 00 	lds	r24, 0x00B9
 5c8:	88 7f       	andi	r24, 0xF8	; 248
 5ca:	88 35       	cpi	r24, 0x58	; 88
 5cc:	21 f0       	breq	.+8      	; 0x5d6 <LCD_toggle+0x6c>
 5ce:	88 e5       	ldi	r24, 0x58	; 88
 5d0:	90 e0       	ldi	r25, 0x00	; 0
 5d2:	0e 94 a3 00 	call	0x146	; 0x146 <Error>
 5d6:	84 e9       	ldi	r24, 0x94	; 148
 5d8:	80 93 bc 00 	sts	0x00BC, r24
 5dc:	2f ef       	ldi	r18, 0xFF	; 255
 5de:	84 e3       	ldi	r24, 0x34	; 52
 5e0:	9c e0       	ldi	r25, 0x0C	; 12
 5e2:	21 50       	subi	r18, 0x01	; 1
 5e4:	80 40       	sbci	r24, 0x00	; 0
 5e6:	90 40       	sbci	r25, 0x00	; 0
 5e8:	e1 f7       	brne	.-8      	; 0x5e2 <LCD_toggle+0x78>
 5ea:	00 c0       	rjmp	.+0      	; 0x5ec <LCD_toggle+0x82>
 5ec:	00 00       	nop
 5ee:	84 ea       	ldi	r24, 0xA4	; 164
 5f0:	80 93 bc 00 	sts	0x00BC, r24
 5f4:	0e 94 14 06 	call	0xc28	; 0xc28 <TWI_Busy>
 5f8:	89 2b       	or	r24, r25
 5fa:	e1 f3       	breq	.-8      	; 0x5f4 <LCD_toggle+0x8a>
 5fc:	80 91 b9 00 	lds	r24, 0x00B9
 600:	88 7f       	andi	r24, 0xF8	; 248
 602:	88 30       	cpi	r24, 0x08	; 8
 604:	21 f0       	breq	.+8      	; 0x60e <LCD_toggle+0xa4>
 606:	88 e0       	ldi	r24, 0x08	; 8
 608:	90 e0       	ldi	r25, 0x00	; 0
 60a:	0e 94 a3 00 	call	0x146	; 0x146 <Error>
 60e:	8f e4       	ldi	r24, 0x4F	; 79
 610:	80 93 bb 00 	sts	0x00BB, r24
 614:	84 e8       	ldi	r24, 0x84	; 132
 616:	80 93 bc 00 	sts	0x00BC, r24
 61a:	0e 94 14 06 	call	0xc28	; 0xc28 <TWI_Busy>
 61e:	89 2b       	or	r24, r25
 620:	e1 f3       	breq	.-8      	; 0x61a <LCD_toggle+0xb0>
 622:	80 91 b9 00 	lds	r24, 0x00B9
 626:	88 7f       	andi	r24, 0xF8	; 248
 628:	80 34       	cpi	r24, 0x40	; 64
 62a:	31 f0       	breq	.+12     	; 0x638 <LCD_toggle+0xce>
 62c:	80 91 b9 00 	lds	r24, 0x00B9
 630:	88 7f       	andi	r24, 0xF8	; 248
 632:	90 e0       	ldi	r25, 0x00	; 0
 634:	0e 94 a3 00 	call	0x146	; 0x146 <Error>
 638:	10 92 bb 00 	sts	0x00BB, r1
 63c:	84 e8       	ldi	r24, 0x84	; 132
 63e:	80 93 bc 00 	sts	0x00BC, r24
 642:	0e 94 14 06 	call	0xc28	; 0xc28 <TWI_Busy>
 646:	89 2b       	or	r24, r25
 648:	e1 f3       	breq	.-8      	; 0x642 <LCD_toggle+0xd8>
 64a:	80 91 b9 00 	lds	r24, 0x00B9
 64e:	88 7f       	andi	r24, 0xF8	; 248
 650:	88 35       	cpi	r24, 0x58	; 88
 652:	31 f0       	breq	.+12     	; 0x660 <LCD_toggle+0xf6>
 654:	80 91 b9 00 	lds	r24, 0x00B9
 658:	88 7f       	andi	r24, 0xF8	; 248
 65a:	90 e0       	ldi	r25, 0x00	; 0
 65c:	0e 94 a3 00 	call	0x146	; 0x146 <Error>
 660:	84 e9       	ldi	r24, 0x94	; 148
 662:	80 93 bc 00 	sts	0x00BC, r24
 666:	2f ef       	ldi	r18, 0xFF	; 255
 668:	84 e3       	ldi	r24, 0x34	; 52
 66a:	9c e0       	ldi	r25, 0x0C	; 12
 66c:	21 50       	subi	r18, 0x01	; 1
 66e:	80 40       	sbci	r24, 0x00	; 0
 670:	90 40       	sbci	r25, 0x00	; 0
 672:	e1 f7       	brne	.-8      	; 0x66c <LCD_toggle+0x102>
 674:	00 c0       	rjmp	.+0      	; 0x676 <LCD_toggle+0x10c>
 676:	00 00       	nop
 678:	08 95       	ret

0000067a <LCD_Command>:
 67a:	cf 93       	push	r28
 67c:	df 93       	push	r29
 67e:	d8 2f       	mov	r29, r24
 680:	84 ea       	ldi	r24, 0xA4	; 164
 682:	80 93 bc 00 	sts	0x00BC, r24
 686:	0e 94 14 06 	call	0xc28	; 0xc28 <TWI_Busy>
 68a:	89 2b       	or	r24, r25
 68c:	e1 f3       	breq	.-8      	; 0x686 <LCD_Command+0xc>
 68e:	80 91 b9 00 	lds	r24, 0x00B9
 692:	88 7f       	andi	r24, 0xF8	; 248
 694:	88 30       	cpi	r24, 0x08	; 8
 696:	21 f0       	breq	.+8      	; 0x6a0 <LCD_Command+0x26>
 698:	88 e0       	ldi	r24, 0x08	; 8
 69a:	90 e0       	ldi	r25, 0x00	; 0
 69c:	0e 94 a3 00 	call	0x146	; 0x146 <Error>
 6a0:	8f e4       	ldi	r24, 0x4F	; 79
 6a2:	80 93 bb 00 	sts	0x00BB, r24
 6a6:	84 e8       	ldi	r24, 0x84	; 132
 6a8:	80 93 bc 00 	sts	0x00BC, r24
 6ac:	0e 94 14 06 	call	0xc28	; 0xc28 <TWI_Busy>
 6b0:	89 2b       	or	r24, r25
 6b2:	e1 f3       	breq	.-8      	; 0x6ac <LCD_Command+0x32>
 6b4:	80 91 b9 00 	lds	r24, 0x00B9
 6b8:	88 7f       	andi	r24, 0xF8	; 248
 6ba:	80 34       	cpi	r24, 0x40	; 64
 6bc:	31 f0       	breq	.+12     	; 0x6ca <LCD_Command+0x50>
 6be:	80 91 b9 00 	lds	r24, 0x00B9
 6c2:	88 7f       	andi	r24, 0xF8	; 248
 6c4:	90 e0       	ldi	r25, 0x00	; 0
 6c6:	0e 94 a3 00 	call	0x146	; 0x146 <Error>
 6ca:	10 92 bb 00 	sts	0x00BB, r1
 6ce:	84 e8       	ldi	r24, 0x84	; 132
 6d0:	80 93 bc 00 	sts	0x00BC, r24
 6d4:	0e 94 14 06 	call	0xc28	; 0xc28 <TWI_Busy>
 6d8:	89 2b       	or	r24, r25
 6da:	e1 f3       	breq	.-8      	; 0x6d4 <LCD_Command+0x5a>
 6dc:	80 91 b9 00 	lds	r24, 0x00B9
 6e0:	88 7f       	andi	r24, 0xF8	; 248
 6e2:	88 35       	cpi	r24, 0x58	; 88
 6e4:	31 f0       	breq	.+12     	; 0x6f2 <LCD_Command+0x78>
 6e6:	80 91 b9 00 	lds	r24, 0x00B9
 6ea:	88 7f       	andi	r24, 0xF8	; 248
 6ec:	90 e0       	ldi	r25, 0x00	; 0
 6ee:	0e 94 a3 00 	call	0x146	; 0x146 <Error>
 6f2:	84 e9       	ldi	r24, 0x94	; 148
 6f4:	80 93 bc 00 	sts	0x00BC, r24
 6f8:	2f ef       	ldi	r18, 0xFF	; 255
 6fa:	84 e3       	ldi	r24, 0x34	; 52
 6fc:	9c e0       	ldi	r25, 0x0C	; 12
 6fe:	21 50       	subi	r18, 0x01	; 1
 700:	80 40       	sbci	r24, 0x00	; 0
 702:	90 40       	sbci	r25, 0x00	; 0
 704:	e1 f7       	brne	.-8      	; 0x6fe <LCD_Command+0x84>
 706:	00 c0       	rjmp	.+0      	; 0x708 <LCD_Command+0x8e>
 708:	00 00       	nop
 70a:	cd 2f       	mov	r28, r29
 70c:	cc 1f       	adc	r28, r28
 70e:	cc 27       	eor	r28, r28
 710:	cc 1f       	adc	r28, r28
 712:	cc 0f       	add	r28, r28
 714:	cc 0f       	add	r28, r28
 716:	cc 0f       	add	r28, r28
 718:	d6 fd       	sbrc	r29, 6
 71a:	c4 60       	ori	r28, 0x04	; 4
 71c:	d5 fd       	sbrc	r29, 5
 71e:	c2 60       	ori	r28, 0x02	; 2
 720:	d4 fd       	sbrc	r29, 4
 722:	c1 60       	ori	r28, 0x01	; 1
 724:	84 ea       	ldi	r24, 0xA4	; 164
 726:	80 93 bc 00 	sts	0x00BC, r24
 72a:	0e 94 14 06 	call	0xc28	; 0xc28 <TWI_Busy>
 72e:	89 2b       	or	r24, r25
 730:	e1 f3       	breq	.-8      	; 0x72a <LCD_Command+0xb0>
 732:	80 91 b9 00 	lds	r24, 0x00B9
 736:	88 7f       	andi	r24, 0xF8	; 248
 738:	88 30       	cpi	r24, 0x08	; 8
 73a:	21 f0       	breq	.+8      	; 0x744 <LCD_Command+0xca>
 73c:	88 e0       	ldi	r24, 0x08	; 8
 73e:	90 e0       	ldi	r25, 0x00	; 0
 740:	0e 94 a3 00 	call	0x146	; 0x146 <Error>
 744:	8f e4       	ldi	r24, 0x4F	; 79
 746:	80 93 bb 00 	sts	0x00BB, r24
 74a:	84 e8       	ldi	r24, 0x84	; 132
 74c:	80 93 bc 00 	sts	0x00BC, r24
 750:	0e 94 14 06 	call	0xc28	; 0xc28 <TWI_Busy>
 754:	89 2b       	or	r24, r25
 756:	e1 f3       	breq	.-8      	; 0x750 <LCD_Command+0xd6>
 758:	80 91 b9 00 	lds	r24, 0x00B9
 75c:	88 7f       	andi	r24, 0xF8	; 248
 75e:	80 34       	cpi	r24, 0x40	; 64
 760:	31 f0       	breq	.+12     	; 0x76e <LCD_Command+0xf4>
 762:	80 91 b9 00 	lds	r24, 0x00B9
 766:	88 7f       	andi	r24, 0xF8	; 248
 768:	90 e0       	ldi	r25, 0x00	; 0
 76a:	0e 94 a3 00 	call	0x146	; 0x146 <Error>
 76e:	c0 93 bb 00 	sts	0x00BB, r28
 772:	84 e8       	ldi	r24, 0x84	; 132
 774:	80 93 bc 00 	sts	0x00BC, r24
 778:	0e 94 14 06 	call	0xc28	; 0xc28 <TWI_Busy>
 77c:	89 2b       	or	r24, r25
 77e:	e1 f3       	breq	.-8      	; 0x778 <LCD_Command+0xfe>
 780:	80 91 b9 00 	lds	r24, 0x00B9
 784:	88 7f       	andi	r24, 0xF8	; 248
 786:	88 35       	cpi	r24, 0x58	; 88
 788:	31 f0       	breq	.+12     	; 0x796 <LCD_Command+0x11c>
 78a:	80 91 b9 00 	lds	r24, 0x00B9
 78e:	88 7f       	andi	r24, 0xF8	; 248
 790:	90 e0       	ldi	r25, 0x00	; 0
 792:	0e 94 a3 00 	call	0x146	; 0x146 <Error>
 796:	84 e9       	ldi	r24, 0x94	; 148
 798:	80 93 bc 00 	sts	0x00BC, r24
 79c:	2f ef       	ldi	r18, 0xFF	; 255
 79e:	84 e3       	ldi	r24, 0x34	; 52
 7a0:	9c e0       	ldi	r25, 0x0C	; 12
 7a2:	21 50       	subi	r18, 0x01	; 1
 7a4:	80 40       	sbci	r24, 0x00	; 0
 7a6:	90 40       	sbci	r25, 0x00	; 0
 7a8:	e1 f7       	brne	.-8      	; 0x7a2 <LCD_Command+0x128>
 7aa:	00 c0       	rjmp	.+0      	; 0x7ac <LCD_Command+0x132>
 7ac:	00 00       	nop
 7ae:	0e 94 b5 02 	call	0x56a	; 0x56a <LCD_toggle>
 7b2:	d3 ff       	sbrs	r29, 3
 7b4:	02 c0       	rjmp	.+4      	; 0x7ba <LCD_Command+0x140>
 7b6:	c8 e0       	ldi	r28, 0x08	; 8
 7b8:	01 c0       	rjmp	.+2      	; 0x7bc <LCD_Command+0x142>
 7ba:	c0 e0       	ldi	r28, 0x00	; 0
 7bc:	d2 fd       	sbrc	r29, 2
 7be:	c4 60       	ori	r28, 0x04	; 4
 7c0:	d1 fd       	sbrc	r29, 1
 7c2:	c2 60       	ori	r28, 0x02	; 2
 7c4:	d0 fd       	sbrc	r29, 0
 7c6:	c1 60       	ori	r28, 0x01	; 1
 7c8:	84 ea       	ldi	r24, 0xA4	; 164
 7ca:	80 93 bc 00 	sts	0x00BC, r24
 7ce:	0e 94 14 06 	call	0xc28	; 0xc28 <TWI_Busy>
 7d2:	89 2b       	or	r24, r25
 7d4:	e1 f3       	breq	.-8      	; 0x7ce <LCD_Command+0x154>
 7d6:	80 91 b9 00 	lds	r24, 0x00B9
 7da:	88 7f       	andi	r24, 0xF8	; 248
 7dc:	88 30       	cpi	r24, 0x08	; 8
 7de:	21 f0       	breq	.+8      	; 0x7e8 <LCD_Command+0x16e>
 7e0:	88 e0       	ldi	r24, 0x08	; 8
 7e2:	90 e0       	ldi	r25, 0x00	; 0
 7e4:	0e 94 a3 00 	call	0x146	; 0x146 <Error>
 7e8:	8f e4       	ldi	r24, 0x4F	; 79
 7ea:	80 93 bb 00 	sts	0x00BB, r24
 7ee:	84 e8       	ldi	r24, 0x84	; 132
 7f0:	80 93 bc 00 	sts	0x00BC, r24
 7f4:	0e 94 14 06 	call	0xc28	; 0xc28 <TWI_Busy>
 7f8:	89 2b       	or	r24, r25
 7fa:	e1 f3       	breq	.-8      	; 0x7f4 <LCD_Command+0x17a>
 7fc:	80 91 b9 00 	lds	r24, 0x00B9
 800:	88 7f       	andi	r24, 0xF8	; 248
 802:	80 34       	cpi	r24, 0x40	; 64
 804:	31 f0       	breq	.+12     	; 0x812 <LCD_Command+0x198>
 806:	80 91 b9 00 	lds	r24, 0x00B9
 80a:	88 7f       	andi	r24, 0xF8	; 248
 80c:	90 e0       	ldi	r25, 0x00	; 0
 80e:	0e 94 a3 00 	call	0x146	; 0x146 <Error>
 812:	c0 93 bb 00 	sts	0x00BB, r28
 816:	84 e8       	ldi	r24, 0x84	; 132
 818:	80 93 bc 00 	sts	0x00BC, r24
 81c:	0e 94 14 06 	call	0xc28	; 0xc28 <TWI_Busy>
 820:	89 2b       	or	r24, r25
 822:	e1 f3       	breq	.-8      	; 0x81c <LCD_Command+0x1a2>
 824:	80 91 b9 00 	lds	r24, 0x00B9
 828:	88 7f       	andi	r24, 0xF8	; 248
 82a:	88 35       	cpi	r24, 0x58	; 88
 82c:	31 f0       	breq	.+12     	; 0x83a <LCD_Command+0x1c0>
 82e:	80 91 b9 00 	lds	r24, 0x00B9
 832:	88 7f       	andi	r24, 0xF8	; 248
 834:	90 e0       	ldi	r25, 0x00	; 0
 836:	0e 94 a3 00 	call	0x146	; 0x146 <Error>
 83a:	84 e9       	ldi	r24, 0x94	; 148
 83c:	80 93 bc 00 	sts	0x00BC, r24
 840:	2f ef       	ldi	r18, 0xFF	; 255
 842:	84 e3       	ldi	r24, 0x34	; 52
 844:	9c e0       	ldi	r25, 0x0C	; 12
 846:	21 50       	subi	r18, 0x01	; 1
 848:	80 40       	sbci	r24, 0x00	; 0
 84a:	90 40       	sbci	r25, 0x00	; 0
 84c:	e1 f7       	brne	.-8      	; 0x846 <LCD_Command+0x1cc>
 84e:	00 c0       	rjmp	.+0      	; 0x850 <LCD_Command+0x1d6>
 850:	00 00       	nop
 852:	0e 94 b5 02 	call	0x56a	; 0x56a <LCD_toggle>
 856:	84 ea       	ldi	r24, 0xA4	; 164
 858:	80 93 bc 00 	sts	0x00BC, r24
 85c:	0e 94 14 06 	call	0xc28	; 0xc28 <TWI_Busy>
 860:	89 2b       	or	r24, r25
 862:	e1 f3       	breq	.-8      	; 0x85c <LCD_Command+0x1e2>
 864:	80 91 b9 00 	lds	r24, 0x00B9
 868:	88 7f       	andi	r24, 0xF8	; 248
 86a:	88 30       	cpi	r24, 0x08	; 8
 86c:	21 f0       	breq	.+8      	; 0x876 <LCD_Command+0x1fc>
 86e:	88 e0       	ldi	r24, 0x08	; 8
 870:	90 e0       	ldi	r25, 0x00	; 0
 872:	0e 94 a3 00 	call	0x146	; 0x146 <Error>
 876:	8f e4       	ldi	r24, 0x4F	; 79
 878:	80 93 bb 00 	sts	0x00BB, r24
 87c:	84 e8       	ldi	r24, 0x84	; 132
 87e:	80 93 bc 00 	sts	0x00BC, r24
 882:	0e 94 14 06 	call	0xc28	; 0xc28 <TWI_Busy>
 886:	89 2b       	or	r24, r25
 888:	e1 f3       	breq	.-8      	; 0x882 <LCD_Command+0x208>
 88a:	80 91 b9 00 	lds	r24, 0x00B9
 88e:	88 7f       	andi	r24, 0xF8	; 248
 890:	80 34       	cpi	r24, 0x40	; 64
 892:	31 f0       	breq	.+12     	; 0x8a0 <LCD_Command+0x226>
 894:	80 91 b9 00 	lds	r24, 0x00B9
 898:	88 7f       	andi	r24, 0xF8	; 248
 89a:	90 e0       	ldi	r25, 0x00	; 0
 89c:	0e 94 a3 00 	call	0x146	; 0x146 <Error>
 8a0:	8f e0       	ldi	r24, 0x0F	; 15
 8a2:	80 93 bb 00 	sts	0x00BB, r24
 8a6:	84 e8       	ldi	r24, 0x84	; 132
 8a8:	80 93 bc 00 	sts	0x00BC, r24
 8ac:	0e 94 14 06 	call	0xc28	; 0xc28 <TWI_Busy>
 8b0:	89 2b       	or	r24, r25
 8b2:	e1 f3       	breq	.-8      	; 0x8ac <LCD_Command+0x232>
 8b4:	80 91 b9 00 	lds	r24, 0x00B9
 8b8:	88 7f       	andi	r24, 0xF8	; 248
 8ba:	88 35       	cpi	r24, 0x58	; 88
 8bc:	31 f0       	breq	.+12     	; 0x8ca <LCD_Command+0x250>
 8be:	80 91 b9 00 	lds	r24, 0x00B9
 8c2:	88 7f       	andi	r24, 0xF8	; 248
 8c4:	90 e0       	ldi	r25, 0x00	; 0
 8c6:	0e 94 a3 00 	call	0x146	; 0x146 <Error>
 8ca:	84 e9       	ldi	r24, 0x94	; 148
 8cc:	80 93 bc 00 	sts	0x00BC, r24
 8d0:	2f ef       	ldi	r18, 0xFF	; 255
 8d2:	84 e3       	ldi	r24, 0x34	; 52
 8d4:	9c e0       	ldi	r25, 0x0C	; 12
 8d6:	21 50       	subi	r18, 0x01	; 1
 8d8:	80 40       	sbci	r24, 0x00	; 0
 8da:	90 40       	sbci	r25, 0x00	; 0
 8dc:	e1 f7       	brne	.-8      	; 0x8d6 <LCD_Command+0x25c>
 8de:	00 c0       	rjmp	.+0      	; 0x8e0 <LCD_Command+0x266>
 8e0:	00 00       	nop
 8e2:	df 91       	pop	r29
 8e4:	cf 91       	pop	r28
 8e6:	08 95       	ret

000008e8 <LCD_Print>:
 8e8:	cf 93       	push	r28
 8ea:	df 93       	push	r29
 8ec:	d8 2f       	mov	r29, r24
 8ee:	84 ea       	ldi	r24, 0xA4	; 164
 8f0:	80 93 bc 00 	sts	0x00BC, r24
 8f4:	0e 94 14 06 	call	0xc28	; 0xc28 <TWI_Busy>
 8f8:	89 2b       	or	r24, r25
 8fa:	e1 f3       	breq	.-8      	; 0x8f4 <LCD_Print+0xc>
 8fc:	80 91 b9 00 	lds	r24, 0x00B9
 900:	88 7f       	andi	r24, 0xF8	; 248
 902:	88 30       	cpi	r24, 0x08	; 8
 904:	21 f0       	breq	.+8      	; 0x90e <__stack+0xf>
 906:	88 e0       	ldi	r24, 0x08	; 8
 908:	90 e0       	ldi	r25, 0x00	; 0
 90a:	0e 94 a3 00 	call	0x146	; 0x146 <Error>
 90e:	8f e4       	ldi	r24, 0x4F	; 79
 910:	80 93 bb 00 	sts	0x00BB, r24
 914:	84 e8       	ldi	r24, 0x84	; 132
 916:	80 93 bc 00 	sts	0x00BC, r24
 91a:	0e 94 14 06 	call	0xc28	; 0xc28 <TWI_Busy>
 91e:	89 2b       	or	r24, r25
 920:	e1 f3       	breq	.-8      	; 0x91a <__stack+0x1b>
 922:	80 91 b9 00 	lds	r24, 0x00B9
 926:	88 7f       	andi	r24, 0xF8	; 248
 928:	80 34       	cpi	r24, 0x40	; 64
 92a:	31 f0       	breq	.+12     	; 0x938 <__stack+0x39>
 92c:	80 91 b9 00 	lds	r24, 0x00B9
 930:	88 7f       	andi	r24, 0xF8	; 248
 932:	90 e0       	ldi	r25, 0x00	; 0
 934:	0e 94 a3 00 	call	0x146	; 0x146 <Error>
 938:	10 92 bb 00 	sts	0x00BB, r1
 93c:	84 e8       	ldi	r24, 0x84	; 132
 93e:	80 93 bc 00 	sts	0x00BC, r24
 942:	0e 94 14 06 	call	0xc28	; 0xc28 <TWI_Busy>
 946:	89 2b       	or	r24, r25
 948:	e1 f3       	breq	.-8      	; 0x942 <__stack+0x43>
 94a:	80 91 b9 00 	lds	r24, 0x00B9
 94e:	88 7f       	andi	r24, 0xF8	; 248
 950:	88 35       	cpi	r24, 0x58	; 88
 952:	31 f0       	breq	.+12     	; 0x960 <__stack+0x61>
 954:	80 91 b9 00 	lds	r24, 0x00B9
 958:	88 7f       	andi	r24, 0xF8	; 248
 95a:	90 e0       	ldi	r25, 0x00	; 0
 95c:	0e 94 a3 00 	call	0x146	; 0x146 <Error>
 960:	84 e9       	ldi	r24, 0x94	; 148
 962:	80 93 bc 00 	sts	0x00BC, r24
 966:	2f ef       	ldi	r18, 0xFF	; 255
 968:	84 e3       	ldi	r24, 0x34	; 52
 96a:	9c e0       	ldi	r25, 0x0C	; 12
 96c:	21 50       	subi	r18, 0x01	; 1
 96e:	80 40       	sbci	r24, 0x00	; 0
 970:	90 40       	sbci	r25, 0x00	; 0
 972:	e1 f7       	brne	.-8      	; 0x96c <__stack+0x6d>
 974:	00 c0       	rjmp	.+0      	; 0x976 <__stack+0x77>
 976:	00 00       	nop
 978:	cd 2f       	mov	r28, r29
 97a:	cc 1f       	adc	r28, r28
 97c:	cc 27       	eor	r28, r28
 97e:	cc 1f       	adc	r28, r28
 980:	cc 0f       	add	r28, r28
 982:	cc 0f       	add	r28, r28
 984:	cc 0f       	add	r28, r28
 986:	d6 fd       	sbrc	r29, 6
 988:	c4 60       	ori	r28, 0x04	; 4
 98a:	d5 fd       	sbrc	r29, 5
 98c:	c2 60       	ori	r28, 0x02	; 2
 98e:	d4 fd       	sbrc	r29, 4
 990:	c1 60       	ori	r28, 0x01	; 1
 992:	84 ea       	ldi	r24, 0xA4	; 164
 994:	80 93 bc 00 	sts	0x00BC, r24
 998:	0e 94 14 06 	call	0xc28	; 0xc28 <TWI_Busy>
 99c:	89 2b       	or	r24, r25
 99e:	e1 f3       	breq	.-8      	; 0x998 <__stack+0x99>
 9a0:	80 91 b9 00 	lds	r24, 0x00B9
 9a4:	88 7f       	andi	r24, 0xF8	; 248
 9a6:	88 30       	cpi	r24, 0x08	; 8
 9a8:	21 f0       	breq	.+8      	; 0x9b2 <__stack+0xb3>
 9aa:	88 e0       	ldi	r24, 0x08	; 8
 9ac:	90 e0       	ldi	r25, 0x00	; 0
 9ae:	0e 94 a3 00 	call	0x146	; 0x146 <Error>
 9b2:	8f e4       	ldi	r24, 0x4F	; 79
 9b4:	80 93 bb 00 	sts	0x00BB, r24
 9b8:	84 e8       	ldi	r24, 0x84	; 132
 9ba:	80 93 bc 00 	sts	0x00BC, r24
 9be:	0e 94 14 06 	call	0xc28	; 0xc28 <TWI_Busy>
 9c2:	89 2b       	or	r24, r25
 9c4:	e1 f3       	breq	.-8      	; 0x9be <__stack+0xbf>
 9c6:	80 91 b9 00 	lds	r24, 0x00B9
 9ca:	88 7f       	andi	r24, 0xF8	; 248
 9cc:	80 34       	cpi	r24, 0x40	; 64
 9ce:	31 f0       	breq	.+12     	; 0x9dc <__stack+0xdd>
 9d0:	80 91 b9 00 	lds	r24, 0x00B9
 9d4:	88 7f       	andi	r24, 0xF8	; 248
 9d6:	90 e0       	ldi	r25, 0x00	; 0
 9d8:	0e 94 a3 00 	call	0x146	; 0x146 <Error>
 9dc:	c0 93 bb 00 	sts	0x00BB, r28
 9e0:	84 e8       	ldi	r24, 0x84	; 132
 9e2:	80 93 bc 00 	sts	0x00BC, r24
 9e6:	0e 94 14 06 	call	0xc28	; 0xc28 <TWI_Busy>
 9ea:	89 2b       	or	r24, r25
 9ec:	e1 f3       	breq	.-8      	; 0x9e6 <__stack+0xe7>
 9ee:	80 91 b9 00 	lds	r24, 0x00B9
 9f2:	88 7f       	andi	r24, 0xF8	; 248
 9f4:	88 35       	cpi	r24, 0x58	; 88
 9f6:	31 f0       	breq	.+12     	; 0xa04 <__stack+0x105>
 9f8:	80 91 b9 00 	lds	r24, 0x00B9
 9fc:	88 7f       	andi	r24, 0xF8	; 248
 9fe:	90 e0       	ldi	r25, 0x00	; 0
 a00:	0e 94 a3 00 	call	0x146	; 0x146 <Error>
 a04:	84 e9       	ldi	r24, 0x94	; 148
 a06:	80 93 bc 00 	sts	0x00BC, r24
 a0a:	2f ef       	ldi	r18, 0xFF	; 255
 a0c:	84 e3       	ldi	r24, 0x34	; 52
 a0e:	9c e0       	ldi	r25, 0x0C	; 12
 a10:	21 50       	subi	r18, 0x01	; 1
 a12:	80 40       	sbci	r24, 0x00	; 0
 a14:	90 40       	sbci	r25, 0x00	; 0
 a16:	e1 f7       	brne	.-8      	; 0xa10 <__stack+0x111>
 a18:	00 c0       	rjmp	.+0      	; 0xa1a <__stack+0x11b>
 a1a:	00 00       	nop
 a1c:	0e 94 b5 02 	call	0x56a	; 0x56a <LCD_toggle>
 a20:	d3 ff       	sbrs	r29, 3
 a22:	02 c0       	rjmp	.+4      	; 0xa28 <__stack+0x129>
 a24:	c8 e0       	ldi	r28, 0x08	; 8
 a26:	01 c0       	rjmp	.+2      	; 0xa2a <__stack+0x12b>
 a28:	c0 e0       	ldi	r28, 0x00	; 0
 a2a:	d2 fd       	sbrc	r29, 2
 a2c:	c4 60       	ori	r28, 0x04	; 4
 a2e:	d1 fd       	sbrc	r29, 1
 a30:	c2 60       	ori	r28, 0x02	; 2
 a32:	d0 fd       	sbrc	r29, 0
 a34:	c1 60       	ori	r28, 0x01	; 1
 a36:	84 ea       	ldi	r24, 0xA4	; 164
 a38:	80 93 bc 00 	sts	0x00BC, r24
 a3c:	0e 94 14 06 	call	0xc28	; 0xc28 <TWI_Busy>
 a40:	89 2b       	or	r24, r25
 a42:	e1 f3       	breq	.-8      	; 0xa3c <__stack+0x13d>
 a44:	80 91 b9 00 	lds	r24, 0x00B9
 a48:	88 7f       	andi	r24, 0xF8	; 248
 a4a:	88 30       	cpi	r24, 0x08	; 8
 a4c:	21 f0       	breq	.+8      	; 0xa56 <__stack+0x157>
 a4e:	88 e0       	ldi	r24, 0x08	; 8
 a50:	90 e0       	ldi	r25, 0x00	; 0
 a52:	0e 94 a3 00 	call	0x146	; 0x146 <Error>
 a56:	8f e4       	ldi	r24, 0x4F	; 79
 a58:	80 93 bb 00 	sts	0x00BB, r24
 a5c:	84 e8       	ldi	r24, 0x84	; 132
 a5e:	80 93 bc 00 	sts	0x00BC, r24
 a62:	0e 94 14 06 	call	0xc28	; 0xc28 <TWI_Busy>
 a66:	89 2b       	or	r24, r25
 a68:	e1 f3       	breq	.-8      	; 0xa62 <__stack+0x163>
 a6a:	80 91 b9 00 	lds	r24, 0x00B9
 a6e:	88 7f       	andi	r24, 0xF8	; 248
 a70:	80 34       	cpi	r24, 0x40	; 64
 a72:	31 f0       	breq	.+12     	; 0xa80 <__stack+0x181>
 a74:	80 91 b9 00 	lds	r24, 0x00B9
 a78:	88 7f       	andi	r24, 0xF8	; 248
 a7a:	90 e0       	ldi	r25, 0x00	; 0
 a7c:	0e 94 a3 00 	call	0x146	; 0x146 <Error>
 a80:	c0 93 bb 00 	sts	0x00BB, r28
 a84:	84 e8       	ldi	r24, 0x84	; 132
 a86:	80 93 bc 00 	sts	0x00BC, r24
 a8a:	0e 94 14 06 	call	0xc28	; 0xc28 <TWI_Busy>
 a8e:	89 2b       	or	r24, r25
 a90:	e1 f3       	breq	.-8      	; 0xa8a <__stack+0x18b>
 a92:	80 91 b9 00 	lds	r24, 0x00B9
 a96:	88 7f       	andi	r24, 0xF8	; 248
 a98:	88 35       	cpi	r24, 0x58	; 88
 a9a:	31 f0       	breq	.+12     	; 0xaa8 <__stack+0x1a9>
 a9c:	80 91 b9 00 	lds	r24, 0x00B9
 aa0:	88 7f       	andi	r24, 0xF8	; 248
 aa2:	90 e0       	ldi	r25, 0x00	; 0
 aa4:	0e 94 a3 00 	call	0x146	; 0x146 <Error>
 aa8:	84 e9       	ldi	r24, 0x94	; 148
 aaa:	80 93 bc 00 	sts	0x00BC, r24
 aae:	2f ef       	ldi	r18, 0xFF	; 255
 ab0:	84 e3       	ldi	r24, 0x34	; 52
 ab2:	9c e0       	ldi	r25, 0x0C	; 12
 ab4:	21 50       	subi	r18, 0x01	; 1
 ab6:	80 40       	sbci	r24, 0x00	; 0
 ab8:	90 40       	sbci	r25, 0x00	; 0
 aba:	e1 f7       	brne	.-8      	; 0xab4 <__stack+0x1b5>
 abc:	00 c0       	rjmp	.+0      	; 0xabe <__stack+0x1bf>
 abe:	00 00       	nop
 ac0:	0e 94 b5 02 	call	0x56a	; 0x56a <LCD_toggle>
 ac4:	84 ea       	ldi	r24, 0xA4	; 164
 ac6:	80 93 bc 00 	sts	0x00BC, r24
 aca:	0e 94 14 06 	call	0xc28	; 0xc28 <TWI_Busy>
 ace:	89 2b       	or	r24, r25
 ad0:	e1 f3       	breq	.-8      	; 0xaca <__stack+0x1cb>
 ad2:	80 91 b9 00 	lds	r24, 0x00B9
 ad6:	88 7f       	andi	r24, 0xF8	; 248
 ad8:	88 30       	cpi	r24, 0x08	; 8
 ada:	21 f0       	breq	.+8      	; 0xae4 <__stack+0x1e5>
 adc:	88 e0       	ldi	r24, 0x08	; 8
 ade:	90 e0       	ldi	r25, 0x00	; 0
 ae0:	0e 94 a3 00 	call	0x146	; 0x146 <Error>
 ae4:	8f e4       	ldi	r24, 0x4F	; 79
 ae6:	80 93 bb 00 	sts	0x00BB, r24
 aea:	84 e8       	ldi	r24, 0x84	; 132
 aec:	80 93 bc 00 	sts	0x00BC, r24
 af0:	0e 94 14 06 	call	0xc28	; 0xc28 <TWI_Busy>
 af4:	89 2b       	or	r24, r25
 af6:	e1 f3       	breq	.-8      	; 0xaf0 <__stack+0x1f1>
 af8:	80 91 b9 00 	lds	r24, 0x00B9
 afc:	88 7f       	andi	r24, 0xF8	; 248
 afe:	80 34       	cpi	r24, 0x40	; 64
 b00:	31 f0       	breq	.+12     	; 0xb0e <__stack+0x20f>
 b02:	80 91 b9 00 	lds	r24, 0x00B9
 b06:	88 7f       	andi	r24, 0xF8	; 248
 b08:	90 e0       	ldi	r25, 0x00	; 0
 b0a:	0e 94 a3 00 	call	0x146	; 0x146 <Error>
 b0e:	8f e0       	ldi	r24, 0x0F	; 15
 b10:	80 93 bb 00 	sts	0x00BB, r24
 b14:	84 e8       	ldi	r24, 0x84	; 132
 b16:	80 93 bc 00 	sts	0x00BC, r24
 b1a:	0e 94 14 06 	call	0xc28	; 0xc28 <TWI_Busy>
 b1e:	89 2b       	or	r24, r25
 b20:	e1 f3       	breq	.-8      	; 0xb1a <__stack+0x21b>
 b22:	80 91 b9 00 	lds	r24, 0x00B9
 b26:	88 7f       	andi	r24, 0xF8	; 248
 b28:	88 35       	cpi	r24, 0x58	; 88
 b2a:	31 f0       	breq	.+12     	; 0xb38 <__stack+0x239>
 b2c:	80 91 b9 00 	lds	r24, 0x00B9
 b30:	88 7f       	andi	r24, 0xF8	; 248
 b32:	90 e0       	ldi	r25, 0x00	; 0
 b34:	0e 94 a3 00 	call	0x146	; 0x146 <Error>
 b38:	84 e9       	ldi	r24, 0x94	; 148
 b3a:	80 93 bc 00 	sts	0x00BC, r24
 b3e:	2f ef       	ldi	r18, 0xFF	; 255
 b40:	84 e3       	ldi	r24, 0x34	; 52
 b42:	9c e0       	ldi	r25, 0x0C	; 12
 b44:	21 50       	subi	r18, 0x01	; 1
 b46:	80 40       	sbci	r24, 0x00	; 0
 b48:	90 40       	sbci	r25, 0x00	; 0
 b4a:	e1 f7       	brne	.-8      	; 0xb44 <__stack+0x245>
 b4c:	00 c0       	rjmp	.+0      	; 0xb4e <__stack+0x24f>
 b4e:	00 00       	nop
 b50:	df 91       	pop	r29
 b52:	cf 91       	pop	r28
 b54:	08 95       	ret

00000b56 <main>:
 b56:	0e 94 53 00 	call	0xa6	; 0xa6 <System_Init>
 b5a:	80 e0       	ldi	r24, 0x00	; 0
 b5c:	9b e4       	ldi	r25, 0x4B	; 75
 b5e:	0e 94 77 00 	call	0xee	; 0xee <UART_Init>
 b62:	0e 94 00 06 	call	0xc00	; 0xc00 <TWI_Master_Init>
 b66:	87 e2       	ldi	r24, 0x27	; 39
 b68:	0e 94 c2 00 	call	0x184	; 0x184 <LCD_Init>
 b6c:	2f ef       	ldi	r18, 0xFF	; 255
 b6e:	8f e4       	ldi	r24, 0x4F	; 79
 b70:	93 ec       	ldi	r25, 0xC3	; 195
 b72:	21 50       	subi	r18, 0x01	; 1
 b74:	80 40       	sbci	r24, 0x00	; 0
 b76:	90 40       	sbci	r25, 0x00	; 0
 b78:	e1 f7       	brne	.-8      	; 0xb72 <main+0x1c>
 b7a:	00 c0       	rjmp	.+0      	; 0xb7c <main+0x26>
 b7c:	00 00       	nop
 b7e:	88 e2       	ldi	r24, 0x28	; 40
 b80:	0e 94 3d 03 	call	0x67a	; 0x67a <LCD_Command>
 b84:	2f ef       	ldi	r18, 0xFF	; 255
 b86:	8f e4       	ldi	r24, 0x4F	; 79
 b88:	93 ec       	ldi	r25, 0xC3	; 195
 b8a:	21 50       	subi	r18, 0x01	; 1
 b8c:	80 40       	sbci	r24, 0x00	; 0
 b8e:	90 40       	sbci	r25, 0x00	; 0
 b90:	e1 f7       	brne	.-8      	; 0xb8a <main+0x34>
 b92:	00 c0       	rjmp	.+0      	; 0xb94 <main+0x3e>
 b94:	00 00       	nop
 b96:	88 e0       	ldi	r24, 0x08	; 8
 b98:	0e 94 3d 03 	call	0x67a	; 0x67a <LCD_Command>
 b9c:	2f ef       	ldi	r18, 0xFF	; 255
 b9e:	8f e4       	ldi	r24, 0x4F	; 79
 ba0:	93 ec       	ldi	r25, 0xC3	; 195
 ba2:	21 50       	subi	r18, 0x01	; 1
 ba4:	80 40       	sbci	r24, 0x00	; 0
 ba6:	90 40       	sbci	r25, 0x00	; 0
 ba8:	e1 f7       	brne	.-8      	; 0xba2 <main+0x4c>
 baa:	00 c0       	rjmp	.+0      	; 0xbac <main+0x56>
 bac:	00 00       	nop
 bae:	81 e0       	ldi	r24, 0x01	; 1
 bb0:	0e 94 3d 03 	call	0x67a	; 0x67a <LCD_Command>
 bb4:	2f ef       	ldi	r18, 0xFF	; 255
 bb6:	8f e4       	ldi	r24, 0x4F	; 79
 bb8:	93 ec       	ldi	r25, 0xC3	; 195
 bba:	21 50       	subi	r18, 0x01	; 1
 bbc:	80 40       	sbci	r24, 0x00	; 0
 bbe:	90 40       	sbci	r25, 0x00	; 0
 bc0:	e1 f7       	brne	.-8      	; 0xbba <main+0x64>
 bc2:	00 c0       	rjmp	.+0      	; 0xbc4 <main+0x6e>
 bc4:	00 00       	nop
 bc6:	84 e4       	ldi	r24, 0x44	; 68
 bc8:	0e 94 3d 03 	call	0x67a	; 0x67a <LCD_Command>
 bcc:	2f ef       	ldi	r18, 0xFF	; 255
 bce:	8f e4       	ldi	r24, 0x4F	; 79
 bd0:	93 ec       	ldi	r25, 0xC3	; 195
 bd2:	21 50       	subi	r18, 0x01	; 1
 bd4:	80 40       	sbci	r24, 0x00	; 0
 bd6:	90 40       	sbci	r25, 0x00	; 0
 bd8:	e1 f7       	brne	.-8      	; 0xbd2 <main+0x7c>
 bda:	00 c0       	rjmp	.+0      	; 0xbdc <main+0x86>
 bdc:	00 00       	nop
 bde:	8e e0       	ldi	r24, 0x0E	; 14
 be0:	0e 94 3d 03 	call	0x67a	; 0x67a <LCD_Command>
 be4:	2f ef       	ldi	r18, 0xFF	; 255
 be6:	8f e4       	ldi	r24, 0x4F	; 79
 be8:	93 ec       	ldi	r25, 0xC3	; 195
 bea:	21 50       	subi	r18, 0x01	; 1
 bec:	80 40       	sbci	r24, 0x00	; 0
 bee:	90 40       	sbci	r25, 0x00	; 0
 bf0:	e1 f7       	brne	.-8      	; 0xbea <main+0x94>
 bf2:	00 c0       	rjmp	.+0      	; 0xbf4 <main+0x9e>
 bf4:	00 00       	nop
 bf6:	83 e5       	ldi	r24, 0x53	; 83
 bf8:	0e 94 74 04 	call	0x8e8	; 0x8e8 <LCD_Print>
 bfc:	28 9a       	sbi	0x05, 0	; 5
 bfe:	fe cf       	rjmp	.-4      	; 0xbfc <main+0xa6>

00000c00 <TWI_Master_Init>:
 c00:	e4 e6       	ldi	r30, 0x64	; 100
 c02:	f0 e0       	ldi	r31, 0x00	; 0
 c04:	80 81       	ld	r24, Z
 c06:	8f 77       	andi	r24, 0x7F	; 127
 c08:	80 83       	st	Z, r24
 c0a:	e9 eb       	ldi	r30, 0xB9	; 185
 c0c:	f0 e0       	ldi	r31, 0x00	; 0
 c0e:	80 81       	ld	r24, Z
 c10:	8c 7f       	andi	r24, 0xFC	; 252
 c12:	80 83       	st	Z, r24
 c14:	80 e2       	ldi	r24, 0x20	; 32
 c16:	80 93 b8 00 	sts	0x00B8, r24
 c1a:	8f ef       	ldi	r24, 0xFF	; 255
 c1c:	80 93 bb 00 	sts	0x00BB, r24
 c20:	85 e0       	ldi	r24, 0x05	; 5
 c22:	80 93 bc 00 	sts	0x00BC, r24
 c26:	08 95       	ret

00000c28 <TWI_Busy>:
 c28:	80 91 bc 00 	lds	r24, 0x00BC
 c2c:	80 78       	andi	r24, 0x80	; 128
 c2e:	90 e0       	ldi	r25, 0x00	; 0
 c30:	08 95       	ret

00000c32 <__udivmodsi4>:
 c32:	a1 e2       	ldi	r26, 0x21	; 33
 c34:	1a 2e       	mov	r1, r26
 c36:	aa 1b       	sub	r26, r26
 c38:	bb 1b       	sub	r27, r27
 c3a:	fd 01       	movw	r30, r26
 c3c:	0d c0       	rjmp	.+26     	; 0xc58 <__udivmodsi4_ep>

00000c3e <__udivmodsi4_loop>:
 c3e:	aa 1f       	adc	r26, r26
 c40:	bb 1f       	adc	r27, r27
 c42:	ee 1f       	adc	r30, r30
 c44:	ff 1f       	adc	r31, r31
 c46:	a2 17       	cp	r26, r18
 c48:	b3 07       	cpc	r27, r19
 c4a:	e4 07       	cpc	r30, r20
 c4c:	f5 07       	cpc	r31, r21
 c4e:	20 f0       	brcs	.+8      	; 0xc58 <__udivmodsi4_ep>
 c50:	a2 1b       	sub	r26, r18
 c52:	b3 0b       	sbc	r27, r19
 c54:	e4 0b       	sbc	r30, r20
 c56:	f5 0b       	sbc	r31, r21

00000c58 <__udivmodsi4_ep>:
 c58:	66 1f       	adc	r22, r22
 c5a:	77 1f       	adc	r23, r23
 c5c:	88 1f       	adc	r24, r24
 c5e:	99 1f       	adc	r25, r25
 c60:	1a 94       	dec	r1
 c62:	69 f7       	brne	.-38     	; 0xc3e <__udivmodsi4_loop>
 c64:	60 95       	com	r22
 c66:	70 95       	com	r23
 c68:	80 95       	com	r24
 c6a:	90 95       	com	r25
 c6c:	9b 01       	movw	r18, r22
 c6e:	ac 01       	movw	r20, r24
 c70:	bd 01       	movw	r22, r26
 c72:	cf 01       	movw	r24, r30
 c74:	08 95       	ret

00000c76 <__divmodsi4>:
 c76:	05 2e       	mov	r0, r21
 c78:	97 fb       	bst	r25, 7
 c7a:	1e f4       	brtc	.+6      	; 0xc82 <__divmodsi4+0xc>
 c7c:	00 94       	com	r0
 c7e:	0e 94 52 06 	call	0xca4	; 0xca4 <__negsi2>
 c82:	57 fd       	sbrc	r21, 7
 c84:	07 d0       	rcall	.+14     	; 0xc94 <__divmodsi4_neg2>
 c86:	0e 94 19 06 	call	0xc32	; 0xc32 <__udivmodsi4>
 c8a:	07 fc       	sbrc	r0, 7
 c8c:	03 d0       	rcall	.+6      	; 0xc94 <__divmodsi4_neg2>
 c8e:	4e f4       	brtc	.+18     	; 0xca2 <__divmodsi4_exit>
 c90:	0c 94 52 06 	jmp	0xca4	; 0xca4 <__negsi2>

00000c94 <__divmodsi4_neg2>:
 c94:	50 95       	com	r21
 c96:	40 95       	com	r20
 c98:	30 95       	com	r19
 c9a:	21 95       	neg	r18
 c9c:	3f 4f       	sbci	r19, 0xFF	; 255
 c9e:	4f 4f       	sbci	r20, 0xFF	; 255
 ca0:	5f 4f       	sbci	r21, 0xFF	; 255

00000ca2 <__divmodsi4_exit>:
 ca2:	08 95       	ret

00000ca4 <__negsi2>:
 ca4:	90 95       	com	r25
 ca6:	80 95       	com	r24
 ca8:	70 95       	com	r23
 caa:	61 95       	neg	r22
 cac:	7f 4f       	sbci	r23, 0xFF	; 255
 cae:	8f 4f       	sbci	r24, 0xFF	; 255
 cb0:	9f 4f       	sbci	r25, 0xFF	; 255
 cb2:	08 95       	ret

00000cb4 <_exit>:
 cb4:	f8 94       	cli

00000cb6 <__stop_program>:
 cb6:	ff cf       	rjmp	.-2      	; 0xcb6 <__stop_program>
