
ATMega168.elf:     file format elf32-avr

Sections:
Idx Name          Size      VMA       LMA       File off  Algn
  0 .data         0000005e  00800100  00000bd4  00000c68  2**0
                  CONTENTS, ALLOC, LOAD, DATA
  1 .text         00000bd4  00000000  00000000  00000094  2**1
                  CONTENTS, ALLOC, LOAD, READONLY, CODE
  2 .bss          0000001b  0080015e  0080015e  00000cc6  2**0
                  ALLOC
  3 .comment      00000030  00000000  00000000  00000cc6  2**0
                  CONTENTS, READONLY
  4 .note.gnu.avr.deviceinfo 00000040  00000000  00000000  00000cf8  2**2
                  CONTENTS, READONLY
  5 .debug_aranges 000001a8  00000000  00000000  00000d38  2**0
                  CONTENTS, READONLY, DEBUGGING
  6 .debug_info   00001de7  00000000  00000000  00000ee0  2**0
                  CONTENTS, READONLY, DEBUGGING
  7 .debug_abbrev 00000828  00000000  00000000  00002cc7  2**0
                  CONTENTS, READONLY, DEBUGGING
  8 .debug_line   0000099b  00000000  00000000  000034ef  2**0
                  CONTENTS, READONLY, DEBUGGING
  9 .debug_frame  000003d8  00000000  00000000  00003e8c  2**2
                  CONTENTS, READONLY, DEBUGGING
 10 .debug_str    000004cd  00000000  00000000  00004264  2**0
                  CONTENTS, READONLY, DEBUGGING
 11 .debug_loc    00000b5c  00000000  00000000  00004731  2**0
                  CONTENTS, READONLY, DEBUGGING
 12 .debug_ranges 00000158  00000000  00000000  0000528d  2**0
                  CONTENTS, READONLY, DEBUGGING

Disassembly of section .text:

00000000 <__vectors>:
   0:	0c 94 34 00 	jmp	0x68	; 0x68 <__ctors_end>
   4:	0c 94 3a 04 	jmp	0x874	; 0x874 <__vector_1>
   8:	0c 94 51 00 	jmp	0xa2	; 0xa2 <__bad_interrupt>
   c:	0c 94 51 00 	jmp	0xa2	; 0xa2 <__bad_interrupt>
  10:	0c 94 51 00 	jmp	0xa2	; 0xa2 <__bad_interrupt>
  14:	0c 94 f3 03 	jmp	0x7e6	; 0x7e6 <__vector_5>
  18:	0c 94 51 00 	jmp	0xa2	; 0xa2 <__bad_interrupt>
  1c:	0c 94 51 00 	jmp	0xa2	; 0xa2 <__bad_interrupt>
  20:	0c 94 51 00 	jmp	0xa2	; 0xa2 <__bad_interrupt>
  24:	0c 94 51 00 	jmp	0xa2	; 0xa2 <__bad_interrupt>
  28:	0c 94 51 00 	jmp	0xa2	; 0xa2 <__bad_interrupt>
  2c:	0c 94 51 00 	jmp	0xa2	; 0xa2 <__bad_interrupt>
  30:	0c 94 51 00 	jmp	0xa2	; 0xa2 <__bad_interrupt>
  34:	0c 94 51 00 	jmp	0xa2	; 0xa2 <__bad_interrupt>
  38:	0c 94 8f 04 	jmp	0x91e	; 0x91e <__vector_14>
  3c:	0c 94 57 04 	jmp	0x8ae	; 0x8ae <__vector_15>
  40:	0c 94 51 00 	jmp	0xa2	; 0xa2 <__bad_interrupt>
  44:	0c 94 51 00 	jmp	0xa2	; 0xa2 <__bad_interrupt>
  48:	0c 94 17 04 	jmp	0x82e	; 0x82e <__vector_18>
  4c:	0c 94 51 00 	jmp	0xa2	; 0xa2 <__bad_interrupt>
  50:	0c 94 51 00 	jmp	0xa2	; 0xa2 <__bad_interrupt>
  54:	0c 94 51 00 	jmp	0xa2	; 0xa2 <__bad_interrupt>
  58:	0c 94 51 00 	jmp	0xa2	; 0xa2 <__bad_interrupt>
  5c:	0c 94 51 00 	jmp	0xa2	; 0xa2 <__bad_interrupt>
  60:	0c 94 51 00 	jmp	0xa2	; 0xa2 <__bad_interrupt>
  64:	0c 94 51 00 	jmp	0xa2	; 0xa2 <__bad_interrupt>

00000068 <__ctors_end>:
  68:	11 24       	eor	r1, r1
  6a:	1f be       	out	0x3f, r1	; 63
  6c:	cf ef       	ldi	r28, 0xFF	; 255
  6e:	d4 e0       	ldi	r29, 0x04	; 4
  70:	de bf       	out	0x3e, r29	; 62
  72:	cd bf       	out	0x3d, r28	; 61

00000074 <__do_copy_data>:
  74:	11 e0       	ldi	r17, 0x01	; 1
  76:	a0 e0       	ldi	r26, 0x00	; 0
  78:	b1 e0       	ldi	r27, 0x01	; 1
  7a:	e4 ed       	ldi	r30, 0xD4	; 212
  7c:	fb e0       	ldi	r31, 0x0B	; 11
  7e:	02 c0       	rjmp	.+4      	; 0x84 <__do_copy_data+0x10>
  80:	05 90       	lpm	r0, Z+
  82:	0d 92       	st	X+, r0
  84:	ae 35       	cpi	r26, 0x5E	; 94
  86:	b1 07       	cpc	r27, r17
  88:	d9 f7       	brne	.-10     	; 0x80 <__do_copy_data+0xc>

0000008a <__do_clear_bss>:
  8a:	21 e0       	ldi	r18, 0x01	; 1
  8c:	ae e5       	ldi	r26, 0x5E	; 94
  8e:	b1 e0       	ldi	r27, 0x01	; 1
  90:	01 c0       	rjmp	.+2      	; 0x94 <.do_clear_bss_start>

00000092 <.do_clear_bss_loop>:
  92:	1d 92       	st	X+, r1

00000094 <.do_clear_bss_start>:
  94:	a9 37       	cpi	r26, 0x79	; 121
  96:	b2 07       	cpc	r27, r18
  98:	e1 f7       	brne	.-8      	; 0x92 <.do_clear_bss_loop>
  9a:	0e 94 8a 03 	call	0x714	; 0x714 <main>
  9e:	0c 94 e8 05 	jmp	0xbd0	; 0xbd0 <_exit>

000000a2 <__bad_interrupt>:
  a2:	0c 94 00 00 	jmp	0	; 0x0 <__vectors>

000000a6 <System_Init>:
#include "SWUART.H"


void System_Init(void){
	
	DirtyDawg.status = 0;
  a6:	ea e6       	ldi	r30, 0x6A	; 106
  a8:	f1 e0       	ldi	r31, 0x01	; 1
  aa:	17 82       	std	Z+7, r1	; 0x07
	DirtyDawg.front_sensor = 0;
  ac:	12 82       	std	Z+2, r1	; 0x02
	DirtyDawg.back_sensor = 0;
  ae:	13 82       	std	Z+3, r1	; 0x03
	DirtyDawg.left_sensor = 0;
  b0:	10 82       	st	Z, r1
	DirtyDawg.right_sensor = 0;
  b2:	11 82       	std	Z+1, r1	; 0x01
	
	// Enable global interrupt
	sei();
  b4:	78 94       	sei
	// Enable interrupt on PCINT20 (pin 6 on AtMega 168P)
	EICRA = (1<<ISC11);
  b6:	88 e0       	ldi	r24, 0x08	; 8
  b8:	80 93 69 00 	sts	0x0069, r24
	EIMSK = (1<<INT1);
  bc:	82 e0       	ldi	r24, 0x02	; 2
  be:	8d bb       	out	0x1d, r24	; 29
	PCICR = (1<<PCIE2);
  c0:	84 e0       	ldi	r24, 0x04	; 4
  c2:	80 93 68 00 	sts	0x0068, r24
	PCMSK2 = (1<<PCINT20);
  c6:	80 e1       	ldi	r24, 0x10	; 16
  c8:	80 93 6d 00 	sts	0x006D, r24
	
	/*Setting ports - page 75*/
		
	DDRB = (1<<PORTB1) | (1<<PORTB2) | (1<<PORTB3) | (1<<PORTB0); //PB0 is debug greenlight
  cc:	8f e0       	ldi	r24, 0x0F	; 15
  ce:	84 b9       	out	0x04, r24	; 4
	DDRD = (1<<PORTD3) | (1<<PORTD5) | (1<<PORTD6) | (1<<PORTD7); //PD7 is debug yellow
  d0:	88 ee       	ldi	r24, 0xE8	; 232
  d2:	8a b9       	out	0x0a, r24	; 10
	#else
		//round up by default
		__ticks_dc = (uint32_t)(ceil(fabs(__tmp)));
	#endif

	__builtin_avr_delay_cycles(__ticks_dc);
  d4:	2f ef       	ldi	r18, 0xFF	; 255
  d6:	89 e6       	ldi	r24, 0x69	; 105
  d8:	98 e1       	ldi	r25, 0x18	; 24
  da:	21 50       	subi	r18, 0x01	; 1
  dc:	80 40       	sbci	r24, 0x00	; 0
  de:	90 40       	sbci	r25, 0x00	; 0
  e0:	e1 f7       	brne	.-8      	; 0xda <System_Init+0x34>
  e2:	00 c0       	rjmp	.+0      	; 0xe4 <System_Init+0x3e>
  e4:	00 00       	nop
	
	//Turn on the front and backlights
	_delay_ms(8000);
	PORTB = (1<<PORTB1) | (1<<PORTB2) | (1<<PORTB0);
  e6:	87 e0       	ldi	r24, 0x07	; 7
  e8:	85 b9       	out	0x05, r24	; 5
  ea:	2f ef       	ldi	r18, 0xFF	; 255
  ec:	89 e6       	ldi	r24, 0x69	; 105
  ee:	98 e1       	ldi	r25, 0x18	; 24
  f0:	21 50       	subi	r18, 0x01	; 1
  f2:	80 40       	sbci	r24, 0x00	; 0
  f4:	90 40       	sbci	r25, 0x00	; 0
  f6:	e1 f7       	brne	.-8      	; 0xf0 <System_Init+0x4a>
  f8:	00 c0       	rjmp	.+0      	; 0xfa <System_Init+0x54>
  fa:	00 00       	nop
	_delay_ms(8000);
	PORTB = (0<<PORTB1) | (0<<PORTB2) | (0<<PORTB0);
  fc:	15 b8       	out	0x05, r1	; 5
	

	//Signs the status
	DirtyDawg.status = MCU_STARTED;
  fe:	81 e0       	ldi	r24, 0x01	; 1
 100:	87 83       	std	Z+7, r24	; 0x07
 102:	08 95       	ret

00000104 <UART_Init>:
}

void UART_Init(unsigned int baud){
	
	//Set double speed
	UCSR0A = (1<<U2X0);
 104:	22 e0       	ldi	r18, 0x02	; 2
 106:	20 93 c0 00 	sts	0x00C0, r18
	
	//Set baudrate
	unsigned int baudrate;
	baudrate = 8000000/8/baud-1;
 10a:	9c 01       	movw	r18, r24
 10c:	40 e0       	ldi	r20, 0x00	; 0
 10e:	50 e0       	ldi	r21, 0x00	; 0
 110:	60 e4       	ldi	r22, 0x40	; 64
 112:	72 e4       	ldi	r23, 0x42	; 66
 114:	8f e0       	ldi	r24, 0x0F	; 15
 116:	90 e0       	ldi	r25, 0x00	; 0
 118:	0e 94 b5 05 	call	0xb6a	; 0xb6a <__divmodsi4>
 11c:	21 50       	subi	r18, 0x01	; 1
 11e:	31 09       	sbc	r19, r1
	//Double speed use frequency/8/baud
	
	//Set the baudrate in the registry
	UBRR0H = (unsigned char) (baudrate>>8);
 120:	30 93 c5 00 	sts	0x00C5, r19
	UBRR0L = (unsigned char) (baudrate);
 124:	20 93 c4 00 	sts	0x00C4, r18

	//Enables Receive and Transmit over UART
	UCSR0B = (1<<RXEN0) | (1<<TXEN0); //RXCIE and TXCIE for interrupt based UART.
 128:	88 e1       	ldi	r24, 0x18	; 24
 12a:	80 93 c1 00 	sts	0x00C1, r24
	
	//Sets to 1 stop bit and 8 databits
	UCSR0C = (0<<USBS0) | (3<<UCSZ00);
 12e:	e2 ec       	ldi	r30, 0xC2	; 194
 130:	f0 e0       	ldi	r31, 0x00	; 0
 132:	86 e0       	ldi	r24, 0x06	; 6
 134:	80 83       	st	Z, r24
	
	//Disables Parity
	UCSR0C |= (0<<UPM01) | (0<<UPM00);
 136:	80 81       	ld	r24, Z
 138:	80 83       	st	Z, r24
	
	// Set status flag
	DirtyDawg.status |= UART_STARTED;
 13a:	ea e6       	ldi	r30, 0x6A	; 106
 13c:	f1 e0       	ldi	r31, 0x01	; 1
 13e:	87 81       	ldd	r24, Z+7	; 0x07
 140:	82 60       	ori	r24, 0x02	; 2
 142:	87 83       	std	Z+7, r24	; 0x07
 144:	08 95       	ret

00000146 <LCD_Update>:
}

void LCD_Update(void){
 146:	0f 93       	push	r16
 148:	1f 93       	push	r17
 14a:	cf 93       	push	r28
 14c:	df 93       	push	r29
	
	// Prints the distance to front obstacle
	LCD_Byte(LCD_LINE_1, LCD_CMD);
 14e:	60 e0       	ldi	r22, 0x00	; 0
 150:	80 e8       	ldi	r24, 0x80	; 128
 152:	0e 94 1a 05 	call	0xa34	; 0xa34 <LCD_Byte>
	LCD_String("F: ");
 156:	8c e0       	ldi	r24, 0x0C	; 12
 158:	91 e0       	ldi	r25, 0x01	; 1
 15a:	0e 94 56 05 	call	0xaac	; 0xaac <LCD_String>
 15e:	c7 e6       	ldi	r28, 0x67	; 103
 160:	d1 e0       	ldi	r29, 0x01	; 1
 162:	0a e6       	ldi	r16, 0x6A	; 106
 164:	11 e0       	ldi	r17, 0x01	; 1
	for(int i = 0; i < 3; i++)
		LCD_Byte(front[i], LCD_CHR);
 166:	61 e0       	ldi	r22, 0x01	; 1
 168:	89 91       	ld	r24, Y+
 16a:	0e 94 1a 05 	call	0xa34	; 0xa34 <LCD_Byte>
void LCD_Update(void){
	
	// Prints the distance to front obstacle
	LCD_Byte(LCD_LINE_1, LCD_CMD);
	LCD_String("F: ");
	for(int i = 0; i < 3; i++)
 16e:	c0 17       	cp	r28, r16
 170:	d1 07       	cpc	r29, r17
 172:	c9 f7       	brne	.-14     	; 0x166 <LCD_Update+0x20>
		LCD_Byte(front[i], LCD_CHR);
	
	// Prints the distance to back obstacle
	LCD_String("  B: ");
 174:	80 e1       	ldi	r24, 0x10	; 16
 176:	91 e0       	ldi	r25, 0x01	; 1
 178:	0e 94 56 05 	call	0xaac	; 0xaac <LCD_String>
 17c:	ce e5       	ldi	r28, 0x5E	; 94
 17e:	d1 e0       	ldi	r29, 0x01	; 1
 180:	01 e6       	ldi	r16, 0x61	; 97
 182:	11 e0       	ldi	r17, 0x01	; 1
	for(int i = 0; i < 3; i++)
		LCD_Byte(back[i], LCD_CHR);
 184:	61 e0       	ldi	r22, 0x01	; 1
 186:	89 91       	ld	r24, Y+
 188:	0e 94 1a 05 	call	0xa34	; 0xa34 <LCD_Byte>
	for(int i = 0; i < 3; i++)
		LCD_Byte(front[i], LCD_CHR);
	
	// Prints the distance to back obstacle
	LCD_String("  B: ");
	for(int i = 0; i < 3; i++)
 18c:	c0 17       	cp	r28, r16
 18e:	d1 07       	cpc	r29, r17
 190:	c9 f7       	brne	.-14     	; 0x184 <LCD_Update+0x3e>
		LCD_Byte(back[i], LCD_CHR);

	// Prints the distance to left obstacle
	LCD_Byte(LCD_LINE_2, LCD_CMD);
 192:	60 e0       	ldi	r22, 0x00	; 0
 194:	80 ec       	ldi	r24, 0xC0	; 192
 196:	0e 94 1a 05 	call	0xa34	; 0xa34 <LCD_Byte>
	LCD_String("L: ");
 19a:	86 e1       	ldi	r24, 0x16	; 22
 19c:	91 e0       	ldi	r25, 0x01	; 1
 19e:	0e 94 56 05 	call	0xaac	; 0xaac <LCD_String>
 1a2:	c4 e6       	ldi	r28, 0x64	; 100
 1a4:	d1 e0       	ldi	r29, 0x01	; 1
 1a6:	07 e6       	ldi	r16, 0x67	; 103
 1a8:	11 e0       	ldi	r17, 0x01	; 1
	for(int i = 0; i < 3; i++)
		LCD_Byte(left[i], LCD_CHR);
 1aa:	61 e0       	ldi	r22, 0x01	; 1
 1ac:	89 91       	ld	r24, Y+
 1ae:	0e 94 1a 05 	call	0xa34	; 0xa34 <LCD_Byte>
		LCD_Byte(back[i], LCD_CHR);

	// Prints the distance to left obstacle
	LCD_Byte(LCD_LINE_2, LCD_CMD);
	LCD_String("L: ");
	for(int i = 0; i < 3; i++)
 1b2:	c0 17       	cp	r28, r16
 1b4:	d1 07       	cpc	r29, r17
 1b6:	c9 f7       	brne	.-14     	; 0x1aa <LCD_Update+0x64>
		LCD_Byte(left[i], LCD_CHR);

	// Prints the distance to right obstacle
	LCD_String("  R: ");
 1b8:	8a e1       	ldi	r24, 0x1A	; 26
 1ba:	91 e0       	ldi	r25, 0x01	; 1
 1bc:	0e 94 56 05 	call	0xaac	; 0xaac <LCD_String>
 1c0:	c1 e6       	ldi	r28, 0x61	; 97
 1c2:	d1 e0       	ldi	r29, 0x01	; 1
 1c4:	04 e6       	ldi	r16, 0x64	; 100
 1c6:	11 e0       	ldi	r17, 0x01	; 1
	for(int i = 0; i < 3; i++)
		LCD_Byte(right[i], LCD_CHR);
 1c8:	61 e0       	ldi	r22, 0x01	; 1
 1ca:	89 91       	ld	r24, Y+
 1cc:	0e 94 1a 05 	call	0xa34	; 0xa34 <LCD_Byte>
	for(int i = 0; i < 3; i++)
		LCD_Byte(left[i], LCD_CHR);

	// Prints the distance to right obstacle
	LCD_String("  R: ");
	for(int i = 0; i < 3; i++)
 1d0:	c0 17       	cp	r28, r16
 1d2:	d1 07       	cpc	r29, r17
 1d4:	c9 f7       	brne	.-14     	; 0x1c8 <LCD_Update+0x82>
		LCD_Byte(right[i], LCD_CHR);

	//Change state
	DirtyDawg.state = SEND_DATA_STATE;
 1d6:	82 e0       	ldi	r24, 0x02	; 2
 1d8:	80 93 72 01 	sts	0x0172, r24
}
 1dc:	df 91       	pop	r29
 1de:	cf 91       	pop	r28
 1e0:	1f 91       	pop	r17
 1e2:	0f 91       	pop	r16
 1e4:	08 95       	ret

000001e6 <Uart_Flush>:

void Uart_Flush(void){
	uint8_t dummy;
	while (UCSR0A & (1<<RXC0)) 
 1e6:	80 91 c0 00 	lds	r24, 0x00C0
 1ea:	88 23       	and	r24, r24
 1ec:	44 f4       	brge	.+16     	; 0x1fe <Uart_Flush+0x18>
		dummy = UDR0;	
 1ee:	a6 ec       	ldi	r26, 0xC6	; 198
 1f0:	b0 e0       	ldi	r27, 0x00	; 0
	DirtyDawg.state = SEND_DATA_STATE;
}

void Uart_Flush(void){
	uint8_t dummy;
	while (UCSR0A & (1<<RXC0)) 
 1f2:	e0 ec       	ldi	r30, 0xC0	; 192
 1f4:	f0 e0       	ldi	r31, 0x00	; 0
		dummy = UDR0;	
 1f6:	8c 91       	ld	r24, X
	DirtyDawg.state = SEND_DATA_STATE;
}

void Uart_Flush(void){
	uint8_t dummy;
	while (UCSR0A & (1<<RXC0)) 
 1f8:	80 81       	ld	r24, Z
 1fa:	88 23       	and	r24, r24
 1fc:	e4 f3       	brlt	.-8      	; 0x1f6 <Uart_Flush+0x10>
 1fe:	08 95       	ret

00000200 <BT_Recieve>:
}

uint8_t BT_Recieve(void){
	
	//Wait for data to be received (wait for flag to be set)
	while(!(UCSR0A & (1<<RXC0)));
 200:	e0 ec       	ldi	r30, 0xC0	; 192
 202:	f0 e0       	ldi	r31, 0x00	; 0
 204:	80 81       	ld	r24, Z
 206:	88 23       	and	r24, r24
 208:	ec f7       	brge	.-6      	; 0x204 <BT_Recieve+0x4>

	//Returns the data from buffer
	return UDR0;
 20a:	80 91 c6 00 	lds	r24, 0x00C6
}
 20e:	08 95       	ret

00000210 <BT_Send>:

void BT_Send(uint8_t data){
	
	//Waits for the transmit buffer to be empty (wait for flag)
	while(!(UCSR0A & (1<<UDRE0)));
 210:	e0 ec       	ldi	r30, 0xC0	; 192
 212:	f0 e0       	ldi	r31, 0x00	; 0
 214:	90 81       	ld	r25, Z
 216:	95 ff       	sbrs	r25, 5
 218:	fd cf       	rjmp	.-6      	; 0x214 <BT_Send+0x4>
	
	//Put data in buffer and sends it
	UDR0 = data;
 21a:	80 93 c6 00 	sts	0x00C6, r24
 21e:	08 95       	ret

00000220 <BT_Init>:
 220:	2f e3       	ldi	r18, 0x3F	; 63
 222:	8d e0       	ldi	r24, 0x0D	; 13
 224:	93 e0       	ldi	r25, 0x03	; 3
 226:	21 50       	subi	r18, 0x01	; 1
 228:	80 40       	sbci	r24, 0x00	; 0
 22a:	90 40       	sbci	r25, 0x00	; 0
 22c:	e1 f7       	brne	.-8      	; 0x226 <BT_Init+0x6>
 22e:	00 c0       	rjmp	.+0      	; 0x230 <BT_Init+0x10>
 230:	00 00       	nop
	
	//Wait for 1 second to ensure the device has power
	_delay_ms(1000);

	// Send "---" to ensure BlueSmirf is not in command mode
	for(int i = 0; i<3; i++) BT_Send('-');
 232:	8d e2       	ldi	r24, 0x2D	; 45
 234:	0e 94 08 01 	call	0x210	; 0x210 <BT_Send>
 238:	8d e2       	ldi	r24, 0x2D	; 45
 23a:	0e 94 08 01 	call	0x210	; 0x210 <BT_Send>
 23e:	8d e2       	ldi	r24, 0x2D	; 45
 240:	0e 94 08 01 	call	0x210	; 0x210 <BT_Send>
	BT_Send(0x0A); //NL
 244:	8a e0       	ldi	r24, 0x0A	; 10
 246:	0e 94 08 01 	call	0x210	; 0x210 <BT_Send>
	BT_Send(0x0D); //CR
 24a:	8d e0       	ldi	r24, 0x0D	; 13
 24c:	0e 94 08 01 	call	0x210	; 0x210 <BT_Send>
 250:	2f e3       	ldi	r18, 0x3F	; 63
 252:	8d e0       	ldi	r24, 0x0D	; 13
 254:	93 e0       	ldi	r25, 0x03	; 3
 256:	21 50       	subi	r18, 0x01	; 1
 258:	80 40       	sbci	r24, 0x00	; 0
 25a:	90 40       	sbci	r25, 0x00	; 0
 25c:	e1 f7       	brne	.-8      	; 0x256 <BT_Init+0x36>
 25e:	00 c0       	rjmp	.+0      	; 0x260 <BT_Init+0x40>
 260:	00 00       	nop
	_delay_ms(1000);
	LCD_Byte(LCD_CLEAR, LCD_CMD);
 262:	60 e0       	ldi	r22, 0x00	; 0
 264:	81 e0       	ldi	r24, 0x01	; 1
 266:	0e 94 1a 05 	call	0xa34	; 0xa34 <LCD_Byte>
 26a:	8b e7       	ldi	r24, 0x7B	; 123
 26c:	92 e9       	ldi	r25, 0x92	; 146
 26e:	01 97       	sbiw	r24, 0x01	; 1
 270:	f1 f7       	brne	.-4      	; 0x26e <BT_Init+0x4e>
 272:	00 c0       	rjmp	.+0      	; 0x274 <BT_Init+0x54>
 274:	00 00       	nop
	_delay_ms(150);
	Uart_Flush();
 276:	0e 94 f3 00 	call	0x1e6	; 0x1e6 <Uart_Flush>
 27a:	08 95       	ret

0000027c <BT_Connection_Check>:
}

void BT_Connection_Check(void){
	
	// Send command to end command mode
	for(int i = 0; i < 3; i++) BT_Send('-');
 27c:	8d e2       	ldi	r24, 0x2D	; 45
 27e:	0e 94 08 01 	call	0x210	; 0x210 <BT_Send>
 282:	8d e2       	ldi	r24, 0x2D	; 45
 284:	0e 94 08 01 	call	0x210	; 0x210 <BT_Send>
 288:	8d e2       	ldi	r24, 0x2D	; 45
 28a:	0e 94 08 01 	call	0x210	; 0x210 <BT_Send>

	BT_Send(LF); //Line feed
 28e:	8a e0       	ldi	r24, 0x0A	; 10
 290:	0e 94 08 01 	call	0x210	; 0x210 <BT_Send>
	BT_Send(CR); //Carriage return
 294:	8d e0       	ldi	r24, 0x0D	; 13
 296:	0e 94 08 01 	call	0x210	; 0x210 <BT_Send>
 29a:	2f e3       	ldi	r18, 0x3F	; 63
 29c:	8d e0       	ldi	r24, 0x0D	; 13
 29e:	93 e0       	ldi	r25, 0x03	; 3
 2a0:	21 50       	subi	r18, 0x01	; 1
 2a2:	80 40       	sbci	r24, 0x00	; 0
 2a4:	90 40       	sbci	r25, 0x00	; 0
 2a6:	e1 f7       	brne	.-8      	; 0x2a0 <BT_Connection_Check+0x24>
 2a8:	00 c0       	rjmp	.+0      	; 0x2aa <BT_Connection_Check+0x2e>
 2aa:	00 00       	nop
	_delay_ms(1000);
	Uart_Flush();
 2ac:	0e 94 f3 00 	call	0x1e6	; 0x1e6 <Uart_Flush>

	//Sends command to enter command mode
	for(int i = 0; i < 3; i++) BT_Send('$');
 2b0:	84 e2       	ldi	r24, 0x24	; 36
 2b2:	0e 94 08 01 	call	0x210	; 0x210 <BT_Send>
 2b6:	84 e2       	ldi	r24, 0x24	; 36
 2b8:	0e 94 08 01 	call	0x210	; 0x210 <BT_Send>
 2bc:	84 e2       	ldi	r24, 0x24	; 36
 2be:	0e 94 08 01 	call	0x210	; 0x210 <BT_Send>

	// Ignore the message from BlueSmirf "CMD"
	while(BT_Recieve() != LF);
 2c2:	0e 94 00 01 	call	0x200	; 0x200 <BT_Recieve>
 2c6:	8a 30       	cpi	r24, 0x0A	; 10
 2c8:	e1 f7       	brne	.-8      	; 0x2c2 <BT_Connection_Check+0x46>

	// Check if connected
	BT_Send('G');
 2ca:	87 e4       	ldi	r24, 0x47	; 71
 2cc:	0e 94 08 01 	call	0x210	; 0x210 <BT_Send>
	BT_Send('K');
 2d0:	8b e4       	ldi	r24, 0x4B	; 75
 2d2:	0e 94 08 01 	call	0x210	; 0x210 <BT_Send>
	BT_Send(LF);
 2d6:	8a e0       	ldi	r24, 0x0A	; 10
 2d8:	0e 94 08 01 	call	0x210	; 0x210 <BT_Send>
	BT_Send(CR);
 2dc:	8d e0       	ldi	r24, 0x0D	; 13
 2de:	0e 94 08 01 	call	0x210	; 0x210 <BT_Send>

	if(BT_Recieve() == '1')
 2e2:	0e 94 00 01 	call	0x200	; 0x200 <BT_Recieve>
 2e6:	81 33       	cpi	r24, 0x31	; 49
 2e8:	31 f4       	brne	.+12     	; 0x2f6 <BT_Connection_Check+0x7a>
		DirtyDawg.status |= BT_CONNECTED;
 2ea:	ea e6       	ldi	r30, 0x6A	; 106
 2ec:	f1 e0       	ldi	r31, 0x01	; 1
 2ee:	87 81       	ldd	r24, Z+7	; 0x07
 2f0:	88 60       	ori	r24, 0x08	; 8
 2f2:	87 83       	std	Z+7, r24	; 0x07
 2f4:	05 c0       	rjmp	.+10     	; 0x300 <BT_Connection_Check+0x84>
	else
		DirtyDawg.status &= ~BT_CONNECTED;
 2f6:	ea e6       	ldi	r30, 0x6A	; 106
 2f8:	f1 e0       	ldi	r31, 0x01	; 1
 2fa:	87 81       	ldd	r24, Z+7	; 0x07
 2fc:	80 7f       	andi	r24, 0xF0	; 240
 2fe:	87 83       	std	Z+7, r24	; 0x07

	Uart_Flush();
 300:	0e 94 f3 00 	call	0x1e6	; 0x1e6 <Uart_Flush>
	
	// End command mode
	for(int i = 0; i < 3; i++) BT_Send('-');
 304:	8d e2       	ldi	r24, 0x2D	; 45
 306:	0e 94 08 01 	call	0x210	; 0x210 <BT_Send>
 30a:	8d e2       	ldi	r24, 0x2D	; 45
 30c:	0e 94 08 01 	call	0x210	; 0x210 <BT_Send>
 310:	8d e2       	ldi	r24, 0x2D	; 45
 312:	0e 94 08 01 	call	0x210	; 0x210 <BT_Send>

	BT_Send(LF); //Line feed
 316:	8a e0       	ldi	r24, 0x0A	; 10
 318:	0e 94 08 01 	call	0x210	; 0x210 <BT_Send>
	BT_Send(CR); //Carriage return
 31c:	8d e0       	ldi	r24, 0x0D	; 13
 31e:	0e 94 08 01 	call	0x210	; 0x210 <BT_Send>
 322:	2f e3       	ldi	r18, 0x3F	; 63
 324:	8d e0       	ldi	r24, 0x0D	; 13
 326:	93 e0       	ldi	r25, 0x03	; 3
 328:	21 50       	subi	r18, 0x01	; 1
 32a:	80 40       	sbci	r24, 0x00	; 0
 32c:	90 40       	sbci	r25, 0x00	; 0
 32e:	e1 f7       	brne	.-8      	; 0x328 <BT_Connection_Check+0xac>
 330:	00 c0       	rjmp	.+0      	; 0x332 <BT_Connection_Check+0xb6>
 332:	00 00       	nop
	_delay_ms(1000);
	Uart_Flush();
 334:	0e 94 f3 00 	call	0x1e6	; 0x1e6 <Uart_Flush>
 338:	08 95       	ret

0000033a <BT_Connect>:

}

void BT_Connect(void){
 33a:	ef 92       	push	r14
 33c:	ff 92       	push	r15
 33e:	0f 93       	push	r16
 340:	1f 93       	push	r17
 342:	cf 93       	push	r28
 344:	df 93       	push	r29
 346:	cd b7       	in	r28, 0x3d	; 61
 348:	de b7       	in	r29, 0x3e	; 62
 34a:	2c 97       	sbiw	r28, 0x0c	; 12
 34c:	0f b6       	in	r0, 0x3f	; 63
 34e:	f8 94       	cli
 350:	de bf       	out	0x3e, r29	; 62
 352:	0f be       	out	0x3f, r0	; 63
 354:	cd bf       	out	0x3d, r28	; 61
 356:	2f e3       	ldi	r18, 0x3F	; 63
 358:	8d e0       	ldi	r24, 0x0D	; 13
 35a:	93 e0       	ldi	r25, 0x03	; 3
 35c:	21 50       	subi	r18, 0x01	; 1
 35e:	80 40       	sbci	r24, 0x00	; 0
 360:	90 40       	sbci	r25, 0x00	; 0
 362:	e1 f7       	brne	.-8      	; 0x35c <BT_Connect+0x22>
 364:	00 c0       	rjmp	.+0      	; 0x366 <BT_Connect+0x2c>
 366:	00 00       	nop

	//Wait for 1 second to ensure the device has power
	_delay_ms(1000);

	for(int i = 0; i < 3; i++) BT_Send('-');
 368:	8d e2       	ldi	r24, 0x2D	; 45
 36a:	0e 94 08 01 	call	0x210	; 0x210 <BT_Send>
 36e:	8d e2       	ldi	r24, 0x2D	; 45
 370:	0e 94 08 01 	call	0x210	; 0x210 <BT_Send>
 374:	8d e2       	ldi	r24, 0x2D	; 45
 376:	0e 94 08 01 	call	0x210	; 0x210 <BT_Send>

	BT_Send(LF); //Line feed
 37a:	8a e0       	ldi	r24, 0x0A	; 10
 37c:	0e 94 08 01 	call	0x210	; 0x210 <BT_Send>
	BT_Send(CR); //Carriage return
 380:	8d e0       	ldi	r24, 0x0D	; 13
 382:	0e 94 08 01 	call	0x210	; 0x210 <BT_Send>
 386:	ef e3       	ldi	r30, 0x3F	; 63
 388:	fd e0       	ldi	r31, 0x0D	; 13
 38a:	23 e0       	ldi	r18, 0x03	; 3
 38c:	e1 50       	subi	r30, 0x01	; 1
 38e:	f0 40       	sbci	r31, 0x00	; 0
 390:	20 40       	sbci	r18, 0x00	; 0
 392:	e1 f7       	brne	.-8      	; 0x38c <BT_Connect+0x52>
 394:	00 c0       	rjmp	.+0      	; 0x396 <BT_Connect+0x5c>
 396:	00 00       	nop
	_delay_ms(1000);
	LCD_Byte(LCD_LINE_2 + 1, LCD_CMD);
 398:	60 e0       	ldi	r22, 0x00	; 0
 39a:	81 ec       	ldi	r24, 0xC1	; 193
 39c:	0e 94 1a 05 	call	0xa34	; 0xa34 <LCD_Byte>
	LCD_Byte('*', LCD_CHR);
 3a0:	61 e0       	ldi	r22, 0x01	; 1
 3a2:	8a e2       	ldi	r24, 0x2A	; 42
 3a4:	0e 94 1a 05 	call	0xa34	; 0xa34 <LCD_Byte>
	LCD_Byte(LCD_LINE_2 + 14, LCD_CMD);
 3a8:	60 e0       	ldi	r22, 0x00	; 0
 3aa:	8e ec       	ldi	r24, 0xCE	; 206
 3ac:	0e 94 1a 05 	call	0xa34	; 0xa34 <LCD_Byte>
	LCD_Byte('*', LCD_CHR);
 3b0:	61 e0       	ldi	r22, 0x01	; 1
 3b2:	8a e2       	ldi	r24, 0x2A	; 42
 3b4:	0e 94 1a 05 	call	0xa34	; 0xa34 <LCD_Byte>
	Uart_Flush();
 3b8:	0e 94 f3 00 	call	0x1e6	; 0x1e6 <Uart_Flush>

	//Sends command to enter command mode
	for(int i = 0; i < 3; i++) BT_Send('$');
 3bc:	84 e2       	ldi	r24, 0x24	; 36
 3be:	0e 94 08 01 	call	0x210	; 0x210 <BT_Send>
 3c2:	84 e2       	ldi	r24, 0x24	; 36
 3c4:	0e 94 08 01 	call	0x210	; 0x210 <BT_Send>
 3c8:	84 e2       	ldi	r24, 0x24	; 36
 3ca:	0e 94 08 01 	call	0x210	; 0x210 <BT_Send>

	// Ignore the message from BlueSmirf "CMD"
	while(BT_Recieve() != LF);
 3ce:	0e 94 00 01 	call	0x200	; 0x200 <BT_Recieve>
 3d2:	8a 30       	cpi	r24, 0x0A	; 10
 3d4:	e1 f7       	brne	.-8      	; 0x3ce <BT_Connect+0x94>

	Uart_Flush();
 3d6:	0e 94 f3 00 	call	0x1e6	; 0x1e6 <Uart_Flush>
		
	// Address to BlueSmirf in the car
	uint8_t adress[12] = {'0','0','0','6','6','6','7','6','A','0','A','A'};
 3da:	8c e0       	ldi	r24, 0x0C	; 12
 3dc:	e0 e0       	ldi	r30, 0x00	; 0
 3de:	f1 e0       	ldi	r31, 0x01	; 1
 3e0:	de 01       	movw	r26, r28
 3e2:	11 96       	adiw	r26, 0x01	; 1
 3e4:	01 90       	ld	r0, Z+
 3e6:	0d 92       	st	X+, r0
 3e8:	8a 95       	dec	r24
 3ea:	e1 f7       	brne	.-8      	; 0x3e4 <BT_Connect+0xaa>
		
	// Command to connect with BlueSmirf in the car
	BT_Send('c');
 3ec:	83 e6       	ldi	r24, 0x63	; 99
 3ee:	0e 94 08 01 	call	0x210	; 0x210 <BT_Send>
	BT_Send(',');
 3f2:	8c e2       	ldi	r24, 0x2C	; 44
 3f4:	0e 94 08 01 	call	0x210	; 0x210 <BT_Send>
 3f8:	8e 01       	movw	r16, r28
 3fa:	0f 5f       	subi	r16, 0xFF	; 255
 3fc:	1f 4f       	sbci	r17, 0xFF	; 255
 3fe:	7e 01       	movw	r14, r28
 400:	8d e0       	ldi	r24, 0x0D	; 13
 402:	e8 0e       	add	r14, r24
 404:	f1 1c       	adc	r15, r1
	for(int i = 0; i < 12;i++){
		BT_Send(adress[i]);
 406:	f8 01       	movw	r30, r16
 408:	81 91       	ld	r24, Z+
 40a:	8f 01       	movw	r16, r30
 40c:	0e 94 08 01 	call	0x210	; 0x210 <BT_Send>
	uint8_t adress[12] = {'0','0','0','6','6','6','7','6','A','0','A','A'};
		
	// Command to connect with BlueSmirf in the car
	BT_Send('c');
	BT_Send(',');
	for(int i = 0; i < 12;i++){
 410:	0e 15       	cp	r16, r14
 412:	1f 05       	cpc	r17, r15
 414:	c1 f7       	brne	.-16     	; 0x406 <BT_Connect+0xcc>
		BT_Send(adress[i]);
	}
	BT_Send(LF);
 416:	8a e0       	ldi	r24, 0x0A	; 10
 418:	0e 94 08 01 	call	0x210	; 0x210 <BT_Send>
	BT_Send(CR);
 41c:	8d e0       	ldi	r24, 0x0D	; 13
 41e:	0e 94 08 01 	call	0x210	; 0x210 <BT_Send>

	// Ignore the message from BlueSmirf "TRYING"
	while(BT_Recieve() != LF);
 422:	0e 94 00 01 	call	0x200	; 0x200 <BT_Recieve>
 426:	8a 30       	cpi	r24, 0x0A	; 10
 428:	e1 f7       	brne	.-8      	; 0x422 <BT_Connect+0xe8>

	// If a good connection, set status
	if(BT_Recieve() == '%')
 42a:	0e 94 00 01 	call	0x200	; 0x200 <BT_Recieve>
 42e:	85 32       	cpi	r24, 0x25	; 37
 430:	29 f4       	brne	.+10     	; 0x43c <BT_Connect+0x102>
		DirtyDawg.status |= BT_CONNECTED;
 432:	ea e6       	ldi	r30, 0x6A	; 106
 434:	f1 e0       	ldi	r31, 0x01	; 1
 436:	87 81       	ldd	r24, Z+7	; 0x07
 438:	88 60       	ori	r24, 0x08	; 8
 43a:	87 83       	std	Z+7, r24	; 0x07

	// Ignore the message from BlueSmirf "CONNECTING"
	while(BT_Recieve() != LF);
 43c:	0e 94 00 01 	call	0x200	; 0x200 <BT_Recieve>
 440:	8a 30       	cpi	r24, 0x0A	; 10
 442:	e1 f7       	brne	.-8      	; 0x43c <BT_Connect+0x102>

	LCD_Byte(LCD_LINE_2 + 1, LCD_CMD);
 444:	60 e0       	ldi	r22, 0x00	; 0
 446:	81 ec       	ldi	r24, 0xC1	; 193
 448:	0e 94 1a 05 	call	0xa34	; 0xa34 <LCD_Byte>
	LCD_Byte(' ', LCD_CHR);
 44c:	61 e0       	ldi	r22, 0x01	; 1
 44e:	80 e2       	ldi	r24, 0x20	; 32
 450:	0e 94 1a 05 	call	0xa34	; 0xa34 <LCD_Byte>
	LCD_Byte(LCD_LINE_2 + 14, LCD_CMD);
 454:	60 e0       	ldi	r22, 0x00	; 0
 456:	8e ec       	ldi	r24, 0xCE	; 206
 458:	0e 94 1a 05 	call	0xa34	; 0xa34 <LCD_Byte>
	LCD_Byte(' ', LCD_CHR);
 45c:	61 e0       	ldi	r22, 0x01	; 1
 45e:	80 e2       	ldi	r24, 0x20	; 32
 460:	0e 94 1a 05 	call	0xa34	; 0xa34 <LCD_Byte>
	
}
 464:	2c 96       	adiw	r28, 0x0c	; 12
 466:	0f b6       	in	r0, 0x3f	; 63
 468:	f8 94       	cli
 46a:	de bf       	out	0x3e, r29	; 62
 46c:	0f be       	out	0x3f, r0	; 63
 46e:	cd bf       	out	0x3d, r28	; 61
 470:	df 91       	pop	r29
 472:	cf 91       	pop	r28
 474:	1f 91       	pop	r17
 476:	0f 91       	pop	r16
 478:	ff 90       	pop	r15
 47a:	ef 90       	pop	r14
 47c:	08 95       	ret

0000047e <Yellow_LED_On>:
	DirtyDawg.state = LCD_STATE;
}

// Lights for debugging reason
void Yellow_LED_On(void){
	PORTD |= (1<<PORTD7);
 47e:	5f 9a       	sbi	0x0b, 7	; 11
 480:	08 95       	ret

00000482 <Yellow_LED_Off>:
}
void Yellow_LED_Off(void){
	PORTD &= (0<<PORTD7);
 482:	8b b1       	in	r24, 0x0b	; 11
 484:	1b b8       	out	0x0b, r1	; 11
 486:	08 95       	ret

00000488 <Red_LED_On>:
}

void Red_LED_On(void){
	PORTB |= (1<<PORTB1);
 488:	29 9a       	sbi	0x05, 1	; 5
 48a:	08 95       	ret

0000048c <Error>:

void Error(unsigned int errorcode){
	
	//Flashes the red lights and send errorcode through Bluetooth
	unsigned long ticks = 0;
	LCD_Byte(LCD_CLEAR, LCD_CMD);
 48c:	60 e0       	ldi	r22, 0x00	; 0
 48e:	81 e0       	ldi	r24, 0x01	; 1
 490:	0e 94 1a 05 	call	0xa34	; 0xa34 <LCD_Byte>
	LCD_Byte(LCD_LINE_1 + 5, LCD_CMD);
 494:	60 e0       	ldi	r22, 0x00	; 0
 496:	85 e8       	ldi	r24, 0x85	; 133
 498:	0e 94 1a 05 	call	0xa34	; 0xa34 <LCD_Byte>
	LCD_String("Error");
 49c:	80 e2       	ldi	r24, 0x20	; 32
 49e:	91 e0       	ldi	r25, 0x01	; 1
 4a0:	0e 94 56 05 	call	0xaac	; 0xaac <LCD_String>
}

void Error(unsigned int errorcode){
	
	//Flashes the red lights and send errorcode through Bluetooth
	unsigned long ticks = 0;
 4a4:	c1 2c       	mov	r12, r1
 4a6:	d1 2c       	mov	r13, r1
 4a8:	76 01       	movw	r14, r12
	LCD_Byte(LCD_CLEAR, LCD_CMD);
	LCD_Byte(LCD_LINE_1 + 5, LCD_CMD);
	LCD_String("Error");
	for(;;){
		if(ticks%10000 == 0){
 4aa:	0f 2e       	mov	r0, r31
 4ac:	f0 e1       	ldi	r31, 0x10	; 16
 4ae:	8f 2e       	mov	r8, r31
 4b0:	f7 e2       	ldi	r31, 0x27	; 39
 4b2:	9f 2e       	mov	r9, r31
 4b4:	a1 2c       	mov	r10, r1
 4b6:	b1 2c       	mov	r11, r1
 4b8:	f0 2d       	mov	r31, r0
 4ba:	c7 01       	movw	r24, r14
 4bc:	b6 01       	movw	r22, r12
 4be:	a5 01       	movw	r20, r10
 4c0:	94 01       	movw	r18, r8
 4c2:	0e 94 93 05 	call	0xb26	; 0xb26 <__udivmodsi4>
 4c6:	67 2b       	or	r22, r23
 4c8:	68 2b       	or	r22, r24
 4ca:	69 2b       	or	r22, r25
 4cc:	11 f4       	brne	.+4      	; 0x4d2 <Error+0x46>
			Red_LED_On();
 4ce:	0e 94 44 02 	call	0x488	; 0x488 <Red_LED_On>
		}
		if(ticks%10000 == 50000){
			Red_LED_Off();
		}
		ticks++;
 4d2:	8f ef       	ldi	r24, 0xFF	; 255
 4d4:	c8 1a       	sub	r12, r24
 4d6:	d8 0a       	sbc	r13, r24
 4d8:	e8 0a       	sbc	r14, r24
 4da:	f8 0a       	sbc	r15, r24
	}
 4dc:	ee cf       	rjmp	.-36     	; 0x4ba <Error+0x2e>

000004de <Green_LED_On>:
void Red_LED_Off(void){
	PORTB &= (0<<PORTB1);
}

void Green_LED_On(void){
	PORTD |= (1<<PORTD6);
 4de:	5e 9a       	sbi	0x0b, 6	; 11
 4e0:	08 95       	ret

000004e2 <BT_Send_Data>:


void BT_Send_Data(void){
	
	uint8_t ECG_hi, ECG_lo;
	Green_LED_On();
 4e2:	0e 94 6f 02 	call	0x4de	; 0x4de <Green_LED_On>

	sputchar( '-' );
 4e6:	8d e2       	ldi	r24, 0x2D	; 45
 4e8:	0e 94 84 04 	call	0x908	; 0x908 <sputchar>
	BT_Send(sgetchar());
 4ec:	0e 94 31 04 	call	0x862	; 0x862 <sgetchar>
 4f0:	0e 94 08 01 	call	0x210	; 0x210 <BT_Send>
	BT_Send(sgetchar());
 4f4:	0e 94 31 04 	call	0x862	; 0x862 <sgetchar>
 4f8:	0e 94 08 01 	call	0x210	; 0x210 <BT_Send>
	BT_Send(sgetchar());
 4fc:	0e 94 31 04 	call	0x862	; 0x862 <sgetchar>
 500:	0e 94 08 01 	call	0x210	; 0x210 <BT_Send>
//	BT_Send(DirtyDawg.ECG);
	// Clear flags
	// DirtyDawg.command = 0;
	
	//Change state
	DirtyDawg.state = GET_DATA_STATE;
 504:	83 e0       	ldi	r24, 0x03	; 3
 506:	80 93 72 01 	sts	0x0172, r24
 50a:	08 95       	ret

0000050c <Green_LED_Off>:

void Green_LED_On(void){
	PORTD |= (1<<PORTD6);
}
void Green_LED_Off(void){
	PORTD &= (0<<PORTD6);
 50c:	8b b1       	in	r24, 0x0b	; 11
 50e:	1b b8       	out	0x0b, r1	; 11
 510:	08 95       	ret

00000512 <BT_Recieve_Data>:
	
	//Change state
	DirtyDawg.state = GET_DATA_STATE;
}

void BT_Recieve_Data(void){
 512:	cf 92       	push	r12
 514:	df 92       	push	r13
 516:	ef 92       	push	r14
 518:	ff 92       	push	r15
 51a:	0f 93       	push	r16
 51c:	1f 93       	push	r17
 51e:	cf 93       	push	r28
 520:	df 93       	push	r29
	uint16_t timeout;
	uint8_t ch;
	Green_LED_Off();
 522:	0e 94 86 02 	call	0x50c	; 0x50c <Green_LED_Off>
 526:	cf e1       	ldi	r28, 0x1F	; 31
 528:	de e4       	ldi	r29, 0x4E	; 78
 52a:	10 e0       	ldi	r17, 0x00	; 0
	timeout = 20000;
	ch = 0;
	// Wait for start command or timeout
//	while((ch = BT_Recieve()) != 'S');
	while((ch != 'S') && (--timeout > 0)){
		if(UCSR0A & (1<<RXC0))
 52c:	0f 2e       	mov	r0, r31
 52e:	f0 ec       	ldi	r31, 0xC0	; 192
 530:	ef 2e       	mov	r14, r31
 532:	f1 2c       	mov	r15, r1
 534:	f0 2d       	mov	r31, r0
			ch = UDR0;
 536:	0f 2e       	mov	r0, r31
 538:	f6 ec       	ldi	r31, 0xC6	; 198
 53a:	cf 2e       	mov	r12, r31
 53c:	d1 2c       	mov	r13, r1
 53e:	f0 2d       	mov	r31, r0
	timeout = 20000;
	ch = 0;
	// Wait for start command or timeout
//	while((ch = BT_Recieve()) != 'S');
	while((ch != 'S') && (--timeout > 0)){
		if(UCSR0A & (1<<RXC0))
 540:	d7 01       	movw	r26, r14
 542:	8c 91       	ld	r24, X
 544:	88 23       	and	r24, r24
 546:	14 f4       	brge	.+4      	; 0x54c <BT_Recieve_Data+0x3a>
			ch = UDR0;
 548:	f6 01       	movw	r30, r12
 54a:	10 81       	ld	r17, Z
		if(timeout > 10000)
 54c:	c1 31       	cpi	r28, 0x11	; 17
 54e:	f7 e2       	ldi	r31, 0x27	; 39
 550:	df 07       	cpc	r29, r31
 552:	18 f0       	brcs	.+6      	; 0x55a <BT_Recieve_Data+0x48>
			Yellow_LED_On();
 554:	0e 94 3f 02 	call	0x47e	; 0x47e <Yellow_LED_On>
 558:	02 c0       	rjmp	.+4      	; 0x55e <BT_Recieve_Data+0x4c>
		else
			Yellow_LED_Off();
 55a:	0e 94 41 02 	call	0x482	; 0x482 <Yellow_LED_Off>
	Green_LED_Off();
	timeout = 20000;
	ch = 0;
	// Wait for start command or timeout
//	while((ch = BT_Recieve()) != 'S');
	while((ch != 'S') && (--timeout > 0)){
 55e:	13 35       	cpi	r17, 0x53	; 83
 560:	89 f1       	breq	.+98     	; 0x5c4 <BT_Recieve_Data+0xb2>
 562:	21 97       	sbiw	r28, 0x01	; 1
 564:	69 f7       	brne	.-38     	; 0x540 <BT_Recieve_Data+0x2e>
 566:	14 c0       	rjmp	.+40     	; 0x590 <BT_Recieve_Data+0x7e>
		right[0] = DirtyDawg.right_sensor / 100;
		right[1] = (DirtyDawg.right_sensor - (right[0] * 100 )) / 10;
		right[2] = (DirtyDawg.right_sensor - (right[0] * 100 )) - right[1] * 10;

		for(int i = 0; i < 3; i++){
			front[i] += '0';
 568:	20 81       	ld	r18, Z
 56a:	20 5d       	subi	r18, 0xD0	; 208
 56c:	21 93       	st	Z+, r18
			back[i] += '0';
 56e:	dc 01       	movw	r26, r24
 570:	2c 91       	ld	r18, X
 572:	20 5d       	subi	r18, 0xD0	; 208
 574:	2d 93       	st	X+, r18
 576:	cd 01       	movw	r24, r26
			left[i] += '0';
 578:	28 81       	ld	r18, Y
 57a:	20 5d       	subi	r18, 0xD0	; 208
 57c:	29 93       	st	Y+, r18
			right[i] += '0';
 57e:	db 01       	movw	r26, r22
 580:	2c 91       	ld	r18, X
 582:	20 5d       	subi	r18, 0xD0	; 208
 584:	2d 93       	st	X+, r18
 586:	bd 01       	movw	r22, r26

		right[0] = DirtyDawg.right_sensor / 100;
		right[1] = (DirtyDawg.right_sensor - (right[0] * 100 )) / 10;
		right[2] = (DirtyDawg.right_sensor - (right[0] * 100 )) - right[1] * 10;

		for(int i = 0; i < 3; i++){
 588:	e4 17       	cp	r30, r20
 58a:	f5 07       	cpc	r31, r21
 58c:	69 f7       	brne	.-38     	; 0x568 <BT_Recieve_Data+0x56>
 58e:	16 c0       	rjmp	.+44     	; 0x5bc <BT_Recieve_Data+0xaa>
 590:	e7 e6       	ldi	r30, 0x67	; 103
 592:	f1 e0       	ldi	r31, 0x01	; 1
 594:	2e e5       	ldi	r18, 0x5E	; 94
 596:	31 e0       	ldi	r19, 0x01	; 1
 598:	c4 e6       	ldi	r28, 0x64	; 100
 59a:	d1 e0       	ldi	r29, 0x01	; 1
 59c:	61 e6       	ldi	r22, 0x61	; 97
 59e:	71 e0       	ldi	r23, 0x01	; 1
 5a0:	4a e6       	ldi	r20, 0x6A	; 106
 5a2:	51 e0       	ldi	r21, 0x01	; 1
		}
	}
	// If timeout
	else if(timeout < 1){
		for(int i = 0; i < 3; i++){
			front[i] = '-';
 5a4:	8d e2       	ldi	r24, 0x2D	; 45
 5a6:	81 93       	st	Z+, r24
			back[i] = '-';
 5a8:	d9 01       	movw	r26, r18
 5aa:	8d 93       	st	X+, r24
 5ac:	9d 01       	movw	r18, r26
			left[i] = '-';
 5ae:	89 93       	st	Y+, r24
			right[i] = '-';
 5b0:	db 01       	movw	r26, r22
 5b2:	8d 93       	st	X+, r24
 5b4:	bd 01       	movw	r22, r26
			right[i] += '0';
		}
	}
	// If timeout
	else if(timeout < 1){
		for(int i = 0; i < 3; i++){
 5b6:	e4 17       	cp	r30, r20
 5b8:	f5 07       	cpc	r31, r21
 5ba:	a9 f7       	brne	.-22     	; 0x5a6 <BT_Recieve_Data+0x94>
			right[i] = '-';
		}
		
	}
	// Change state 
	DirtyDawg.state = LCD_STATE;
 5bc:	81 e0       	ldi	r24, 0x01	; 1
 5be:	80 93 72 01 	sts	0x0172, r24
 5c2:	9f c0       	rjmp	.+318    	; 0x702 <BT_Recieve_Data+0x1f0>
	}

	// If start command received
	if(ch == 'S'){
		// Get IR sensor data from the car
		DirtyDawg.front_sensor = BT_Recieve();
 5c4:	0e 94 00 01 	call	0x200	; 0x200 <BT_Recieve>
 5c8:	ca e6       	ldi	r28, 0x6A	; 106
 5ca:	d1 e0       	ldi	r29, 0x01	; 1
 5cc:	8a 83       	std	Y+2, r24	; 0x02
		DirtyDawg.back_sensor = BT_Recieve();
 5ce:	0e 94 00 01 	call	0x200	; 0x200 <BT_Recieve>
 5d2:	8b 83       	std	Y+3, r24	; 0x03
		DirtyDawg.left_sensor = BT_Recieve();
 5d4:	0e 94 00 01 	call	0x200	; 0x200 <BT_Recieve>
 5d8:	88 83       	st	Y, r24
		DirtyDawg.right_sensor = BT_Recieve();
 5da:	0e 94 00 01 	call	0x200	; 0x200 <BT_Recieve>
 5de:	38 2f       	mov	r19, r24
 5e0:	89 83       	std	Y+1, r24	; 0x01

		// Convert sensor value to ASCII
		front[0] = DirtyDawg.front_sensor / 100;
 5e2:	ea 81       	ldd	r30, Y+2	; 0x02
 5e4:	29 e2       	ldi	r18, 0x29	; 41
 5e6:	e2 9f       	mul	r30, r18
 5e8:	f1 2d       	mov	r31, r1
 5ea:	11 24       	eor	r1, r1
 5ec:	f2 95       	swap	r31
 5ee:	ff 70       	andi	r31, 0x0F	; 15
 5f0:	0f 2e       	mov	r0, r31
 5f2:	f7 e6       	ldi	r31, 0x67	; 103
 5f4:	ef 2e       	mov	r14, r31
 5f6:	f1 e0       	ldi	r31, 0x01	; 1
 5f8:	ff 2e       	mov	r15, r31
 5fa:	f0 2d       	mov	r31, r0
 5fc:	d7 01       	movw	r26, r14
 5fe:	fc 93       	st	X, r31
		front[1] = (DirtyDawg.front_sensor - (front[0] * 100 )) / 10;
 600:	4c e9       	ldi	r20, 0x9C	; 156
 602:	5f 2f       	mov	r21, r31
 604:	45 03       	mulsu	r20, r21
 606:	c0 01       	movw	r24, r0
 608:	11 24       	eor	r1, r1
 60a:	8e 0f       	add	r24, r30
 60c:	91 1d       	adc	r25, r1
 60e:	0a e0       	ldi	r16, 0x0A	; 10
 610:	10 e0       	ldi	r17, 0x00	; 0
 612:	b8 01       	movw	r22, r16
 614:	0e 94 7f 05 	call	0xafe	; 0xafe <__divmodhi4>
 618:	d7 01       	movw	r26, r14
 61a:	11 96       	adiw	r26, 0x01	; 1
 61c:	6c 93       	st	X, r22
 61e:	11 97       	sbiw	r26, 0x01	; 1
 620:	f4 9f       	mul	r31, r20
 622:	e0 0d       	add	r30, r0
 624:	11 24       	eor	r1, r1
		front[2] = (DirtyDawg.front_sensor - (front[0] * 100 )) - front[1] * 10;
 626:	66 0f       	add	r22, r22
 628:	86 2f       	mov	r24, r22
 62a:	88 0f       	add	r24, r24
 62c:	88 0f       	add	r24, r24
 62e:	68 0f       	add	r22, r24
 630:	e6 1b       	sub	r30, r22
 632:	12 96       	adiw	r26, 0x02	; 2
 634:	ec 93       	st	X, r30

		back[0] = DirtyDawg.back_sensor / 100;
 636:	eb 81       	ldd	r30, Y+3	; 0x03
 638:	e2 9f       	mul	r30, r18
 63a:	f1 2d       	mov	r31, r1
 63c:	11 24       	eor	r1, r1
 63e:	f2 95       	swap	r31
 640:	ff 70       	andi	r31, 0x0F	; 15
 642:	0f 2e       	mov	r0, r31
 644:	fe e5       	ldi	r31, 0x5E	; 94
 646:	ef 2e       	mov	r14, r31
 648:	f1 e0       	ldi	r31, 0x01	; 1
 64a:	ff 2e       	mov	r15, r31
 64c:	f0 2d       	mov	r31, r0
 64e:	d7 01       	movw	r26, r14
 650:	fc 93       	st	X, r31
		back[1] = (DirtyDawg.back_sensor - (back[0] * 100 )) / 10;
 652:	5f 2f       	mov	r21, r31
 654:	45 03       	mulsu	r20, r21
 656:	c0 01       	movw	r24, r0
 658:	11 24       	eor	r1, r1
 65a:	8e 0f       	add	r24, r30
 65c:	91 1d       	adc	r25, r1
 65e:	b8 01       	movw	r22, r16
 660:	0e 94 7f 05 	call	0xafe	; 0xafe <__divmodhi4>
 664:	d7 01       	movw	r26, r14
 666:	11 96       	adiw	r26, 0x01	; 1
 668:	6c 93       	st	X, r22
 66a:	11 97       	sbiw	r26, 0x01	; 1
 66c:	f4 9f       	mul	r31, r20
 66e:	e0 0d       	add	r30, r0
 670:	11 24       	eor	r1, r1
		back[2] = (DirtyDawg.back_sensor - (back[0] * 100 )) - back[1] * 10;
 672:	66 0f       	add	r22, r22
 674:	86 2f       	mov	r24, r22
 676:	88 0f       	add	r24, r24
 678:	88 0f       	add	r24, r24
 67a:	68 0f       	add	r22, r24
 67c:	e6 1b       	sub	r30, r22
 67e:	12 96       	adiw	r26, 0x02	; 2
 680:	ec 93       	st	X, r30

		left[0] = DirtyDawg.left_sensor / 100;
 682:	e8 81       	ld	r30, Y
 684:	e2 9f       	mul	r30, r18
 686:	f1 2d       	mov	r31, r1
 688:	11 24       	eor	r1, r1
 68a:	f2 95       	swap	r31
 68c:	ff 70       	andi	r31, 0x0F	; 15
 68e:	c4 e6       	ldi	r28, 0x64	; 100
 690:	d1 e0       	ldi	r29, 0x01	; 1
 692:	f8 83       	st	Y, r31
		left[1] = (DirtyDawg.left_sensor - (left[0] * 100 )) / 10;
 694:	5f 2f       	mov	r21, r31
 696:	45 03       	mulsu	r20, r21
 698:	c0 01       	movw	r24, r0
 69a:	11 24       	eor	r1, r1
 69c:	8e 0f       	add	r24, r30
 69e:	91 1d       	adc	r25, r1
 6a0:	b8 01       	movw	r22, r16
 6a2:	0e 94 7f 05 	call	0xafe	; 0xafe <__divmodhi4>
 6a6:	69 83       	std	Y+1, r22	; 0x01
 6a8:	f4 9f       	mul	r31, r20
 6aa:	e0 0d       	add	r30, r0
 6ac:	11 24       	eor	r1, r1
		left[2] = (DirtyDawg.left_sensor - (left[0] * 100 )) - left[1] * 10;
 6ae:	66 0f       	add	r22, r22
 6b0:	86 2f       	mov	r24, r22
 6b2:	88 0f       	add	r24, r24
 6b4:	88 0f       	add	r24, r24
 6b6:	68 0f       	add	r22, r24
 6b8:	e6 1b       	sub	r30, r22
 6ba:	ea 83       	std	Y+2, r30	; 0x02

		right[0] = DirtyDawg.right_sensor / 100;
 6bc:	32 9f       	mul	r19, r18
 6be:	21 2d       	mov	r18, r1
 6c0:	11 24       	eor	r1, r1
 6c2:	22 95       	swap	r18
 6c4:	2f 70       	andi	r18, 0x0F	; 15
 6c6:	e1 e6       	ldi	r30, 0x61	; 97
 6c8:	f1 e0       	ldi	r31, 0x01	; 1
 6ca:	20 83       	st	Z, r18
		right[1] = (DirtyDawg.right_sensor - (right[0] * 100 )) / 10;
 6cc:	42 03       	mulsu	r20, r18
 6ce:	c0 01       	movw	r24, r0
 6d0:	11 24       	eor	r1, r1
 6d2:	83 0f       	add	r24, r19
 6d4:	91 1d       	adc	r25, r1
 6d6:	b8 01       	movw	r22, r16
 6d8:	0e 94 7f 05 	call	0xafe	; 0xafe <__divmodhi4>
 6dc:	61 83       	std	Z+1, r22	; 0x01
 6de:	24 9f       	mul	r18, r20
 6e0:	30 0d       	add	r19, r0
 6e2:	11 24       	eor	r1, r1
		right[2] = (DirtyDawg.right_sensor - (right[0] * 100 )) - right[1] * 10;
 6e4:	66 0f       	add	r22, r22
 6e6:	86 2f       	mov	r24, r22
 6e8:	88 0f       	add	r24, r24
 6ea:	88 0f       	add	r24, r24
 6ec:	68 0f       	add	r22, r24
 6ee:	36 1b       	sub	r19, r22
 6f0:	32 83       	std	Z+2, r19	; 0x02
 6f2:	e7 e6       	ldi	r30, 0x67	; 103
 6f4:	f1 e0       	ldi	r31, 0x01	; 1
 6f6:	c7 01       	movw	r24, r14
 6f8:	61 e6       	ldi	r22, 0x61	; 97
 6fa:	71 e0       	ldi	r23, 0x01	; 1
 6fc:	4a e6       	ldi	r20, 0x6A	; 106
 6fe:	51 e0       	ldi	r21, 0x01	; 1
 700:	33 cf       	rjmp	.-410    	; 0x568 <BT_Recieve_Data+0x56>
		}
		
	}
	// Change state 
	DirtyDawg.state = LCD_STATE;
}
 702:	df 91       	pop	r29
 704:	cf 91       	pop	r28
 706:	1f 91       	pop	r17
 708:	0f 91       	pop	r16
 70a:	ff 90       	pop	r15
 70c:	ef 90       	pop	r14
 70e:	df 90       	pop	r13
 710:	cf 90       	pop	r12
 712:	08 95       	ret

00000714 <main>:
#define ARR_SIZE(x)  (sizeof(x) / sizeof(x[0]))

int main(void){

	// Sets the starting state
	DirtyDawg.state = LCD_STATE;
 714:	ca e6       	ldi	r28, 0x6A	; 106
 716:	d1 e0       	ldi	r29, 0x01	; 1
 718:	81 e0       	ldi	r24, 0x01	; 1
 71a:	88 87       	std	Y+8, r24	; 0x08

	// Initiate the hardware
	System_Init();
 71c:	0e 94 53 00 	call	0xa6	; 0xa6 <System_Init>
	
	// Initiate the software define UART
	suart_init();
 720:	0e 94 21 04 	call	0x842	; 0x842 <suart_init>
	
	// Initiate the TWI bus as a master
	TWI_Master_Init();
 724:	0e 94 66 05 	call	0xacc	; 0xacc <TWI_Master_Init>

	// Initiate the LCD Screen
	LCD_Init();
 728:	0e 94 37 05 	call	0xa6e	; 0xa6e <LCD_Init>
	
	// Initiate the hardware defined UART
	UART_Init(19200);
 72c:	80 e0       	ldi	r24, 0x00	; 0
 72e:	9b e4       	ldi	r25, 0x4B	; 75
 730:	0e 94 82 00 	call	0x104	; 0x104 <UART_Init>
	
	// Initiate/Clear the BlueSmirf from previous commands
	BT_Init();
 734:	0e 94 10 01 	call	0x220	; 0x220 <BT_Init>

	// Connect the BlueSmirf to the car
	LCD_Byte(LCD_LINE_1 + 3, LCD_CMD);
 738:	60 e0       	ldi	r22, 0x00	; 0
 73a:	83 e8       	ldi	r24, 0x83	; 131
 73c:	0e 94 1a 05 	call	0xa34	; 0xa34 <LCD_Byte>
	LCD_String("DirtyDawg!");
 740:	86 e2       	ldi	r24, 0x26	; 38
 742:	91 e0       	ldi	r25, 0x01	; 1
 744:	0e 94 56 05 	call	0xaac	; 0xaac <LCD_String>
	LCD_Byte(LCD_LINE_2 + 3, LCD_CMD);
 748:	60 e0       	ldi	r22, 0x00	; 0
 74a:	83 ec       	ldi	r24, 0xC3	; 195
 74c:	0e 94 1a 05 	call	0xa34	; 0xa34 <LCD_Byte>
	LCD_String("Connecting");
 750:	81 e3       	ldi	r24, 0x31	; 49
 752:	91 e0       	ldi	r25, 0x01	; 1
 754:	0e 94 56 05 	call	0xaac	; 0xaac <LCD_String>
	BT_Connection_Check();
 758:	0e 94 3e 01 	call	0x27c	; 0x27c <BT_Connection_Check>
	while(!(DirtyDawg.status & BT_CONNECTED))
 75c:	8f 81       	ldd	r24, Y+7	; 0x07
 75e:	83 fd       	sbrc	r24, 3
 760:	05 c0       	rjmp	.+10     	; 0x76c <main+0x58>
		BT_Connect();
 762:	0e 94 9d 01 	call	0x33a	; 0x33a <BT_Connect>
	LCD_Byte(LCD_LINE_1 + 3, LCD_CMD);
	LCD_String("DirtyDawg!");
	LCD_Byte(LCD_LINE_2 + 3, LCD_CMD);
	LCD_String("Connecting");
	BT_Connection_Check();
	while(!(DirtyDawg.status & BT_CONNECTED))
 766:	8f 81       	ldd	r24, Y+7	; 0x07
 768:	83 ff       	sbrs	r24, 3
 76a:	fb cf       	rjmp	.-10     	; 0x762 <main+0x4e>
		BT_Connect();
	  
	// When active connection send '=' to car 
	BT_Send('=');
 76c:	8d e3       	ldi	r24, 0x3D	; 61
 76e:	0e 94 08 01 	call	0x210	; 0x210 <BT_Send>

	// Prepare the LCD for distance data
	LCD_Byte(LCD_LINE_1, LCD_CMD);
 772:	60 e0       	ldi	r22, 0x00	; 0
 774:	80 e8       	ldi	r24, 0x80	; 128
 776:	0e 94 1a 05 	call	0xa34	; 0xa34 <LCD_Byte>
	LCD_String(ROW1);
 77a:	8c e3       	ldi	r24, 0x3C	; 60
 77c:	91 e0       	ldi	r25, 0x01	; 1
 77e:	0e 94 56 05 	call	0xaac	; 0xaac <LCD_String>
	LCD_Byte(LCD_LINE_2, LCD_CMD);
 782:	60 e0       	ldi	r22, 0x00	; 0
 784:	80 ec       	ldi	r24, 0xC0	; 192
 786:	0e 94 1a 05 	call	0xa34	; 0xa34 <LCD_Byte>
	LCD_String(ROW2);
 78a:	8d e4       	ldi	r24, 0x4D	; 77
 78c:	91 e0       	ldi	r25, 0x01	; 1
 78e:	0e 94 56 05 	call	0xaac	; 0xaac <LCD_String>
	
	uint8_t loop = 0;
 792:	10 e0       	ldi	r17, 0x00	; 0
	// Main loop
	while(TRUE){
		
		switch(DirtyDawg.state){
 794:	ca e6       	ldi	r28, 0x6A	; 106
 796:	d1 e0       	ldi	r29, 0x01	; 1
				loop++;
				if(loop > 3){
					BT_Send_Data();
					loop = 0;
				}
				DirtyDawg.state = GET_DATA_STATE;
 798:	03 e0       	ldi	r16, 0x03	; 3
			// Send commands to the car
			case SEND_DATA_STATE:
				loop++;
				if(loop > 3){
					BT_Send_Data();
					loop = 0;
 79a:	f1 2c       	mov	r15, r1
	
	uint8_t loop = 0;
	// Main loop
	while(TRUE){
		
		switch(DirtyDawg.state){
 79c:	88 85       	ldd	r24, Y+8	; 0x08
 79e:	82 30       	cpi	r24, 0x02	; 2
 7a0:	39 f0       	breq	.+14     	; 0x7b0 <main+0x9c>
 7a2:	83 30       	cpi	r24, 0x03	; 3
 7a4:	69 f0       	breq	.+26     	; 0x7c0 <main+0xac>
 7a6:	81 30       	cpi	r24, 0x01	; 1
 7a8:	71 f4       	brne	.+28     	; 0x7c6 <main+0xb2>
			
			// Put sensor data to LCD
			case LCD_STATE:
				LCD_Update();
 7aa:	0e 94 a3 00 	call	0x146	; 0x146 <LCD_Update>
				break;
 7ae:	11 c0       	rjmp	.+34     	; 0x7d2 <main+0xbe>
			
			// Send commands to the car
			case SEND_DATA_STATE:
				loop++;
 7b0:	1f 5f       	subi	r17, 0xFF	; 255
				if(loop > 3){
 7b2:	14 30       	cpi	r17, 0x04	; 4
 7b4:	18 f0       	brcs	.+6      	; 0x7bc <main+0xa8>
					BT_Send_Data();
 7b6:	0e 94 71 02 	call	0x4e2	; 0x4e2 <BT_Send_Data>
					loop = 0;
 7ba:	1f 2d       	mov	r17, r15
				}
				DirtyDawg.state = GET_DATA_STATE;
 7bc:	08 87       	std	Y+8, r16	; 0x08
				break;
 7be:	09 c0       	rjmp	.+18     	; 0x7d2 <main+0xbe>

			// Get sensor data from the car
			case GET_DATA_STATE:
				BT_Recieve_Data();
 7c0:	0e 94 89 02 	call	0x512	; 0x512 <BT_Recieve_Data>
				break;
 7c4:	06 c0       	rjmp	.+12     	; 0x7d2 <main+0xbe>
				
			default:
				Yellow_LED_On();
 7c6:	0e 94 3f 02 	call	0x47e	; 0x47e <Yellow_LED_On>
				Error(0x53);
 7ca:	83 e5       	ldi	r24, 0x53	; 83
 7cc:	90 e0       	ldi	r25, 0x00	; 0
 7ce:	0e 94 46 02 	call	0x48c	; 0x48c <Error>
 7d2:	2f e7       	ldi	r18, 0x7F	; 127
 7d4:	8a e1       	ldi	r24, 0x1A	; 26
 7d6:	96 e0       	ldi	r25, 0x06	; 6
 7d8:	21 50       	subi	r18, 0x01	; 1
 7da:	80 40       	sbci	r24, 0x00	; 0
 7dc:	90 40       	sbci	r25, 0x00	; 0
 7de:	e1 f7       	brne	.-8      	; 0x7d8 <main+0xc4>
 7e0:	00 c0       	rjmp	.+0      	; 0x7e2 <main+0xce>
 7e2:	00 00       	nop
 7e4:	db cf       	rjmp	.-74     	; 0x79c <main+0x88>

000007e6 <__vector_5>:
		}
		_delay_ms(250);
	}	
}

ISR(PCINT2_vect){
 7e6:	1f 92       	push	r1
 7e8:	0f 92       	push	r0
 7ea:	0f b6       	in	r0, 0x3f	; 63
 7ec:	0f 92       	push	r0
 7ee:	11 24       	eor	r1, r1
 7f0:	2f 93       	push	r18
 7f2:	8f 93       	push	r24
 7f4:	9f 93       	push	r25
 7f6:	ef 93       	push	r30
 7f8:	ff 93       	push	r31
	if(DirtyDawg.status & LIGHT_BUTTON){
 7fa:	80 91 71 01 	lds	r24, 0x0171
 7fe:	84 ff       	sbrs	r24, 4
 800:	09 c0       	rjmp	.+18     	; 0x814 <__vector_5+0x2e>
		DirtyDawg.command ^= LIGHT;
 802:	ea e6       	ldi	r30, 0x6A	; 106
 804:	f1 e0       	ldi	r31, 0x01	; 1
 806:	26 81       	ldd	r18, Z+6	; 0x06
 808:	91 e0       	ldi	r25, 0x01	; 1
 80a:	92 27       	eor	r25, r18
 80c:	96 83       	std	Z+6, r25	; 0x06
		DirtyDawg.status &= ~LIGHT_BUTTON;
 80e:	80 7e       	andi	r24, 0xE0	; 224
 810:	87 83       	std	Z+7, r24	; 0x07
 812:	03 c0       	rjmp	.+6      	; 0x81a <__vector_5+0x34>
	}
	else
		DirtyDawg.status |= LIGHT_BUTTON;
 814:	80 61       	ori	r24, 0x10	; 16
 816:	80 93 71 01 	sts	0x0171, r24
}
 81a:	ff 91       	pop	r31
 81c:	ef 91       	pop	r30
 81e:	9f 91       	pop	r25
 820:	8f 91       	pop	r24
 822:	2f 91       	pop	r18
 824:	0f 90       	pop	r0
 826:	0f be       	out	0x3f, r0	; 63
 828:	0f 90       	pop	r0
 82a:	1f 90       	pop	r1
 82c:	18 95       	reti

0000082e <__vector_18>:
	BT_Connect();
}

*/

ISR(USART_RX_vect){
 82e:	1f 92       	push	r1
 830:	0f 92       	push	r0
 832:	0f b6       	in	r0, 0x3f	; 63
 834:	0f 92       	push	r0
 836:	11 24       	eor	r1, r1
		DirtyDawg.front_sensor = BT_Recieve();
		DirtyDawg.back_sensor = BT_Recieve();
		DirtyDawg.left_sensor = BT_Recieve();
		DirtyDawg.right_sensor = BT_Recieve();
	} */
}
 838:	0f 90       	pop	r0
 83a:	0f be       	out	0x3f, r0	; 63
 83c:	0f 90       	pop	r0
 83e:	1f 90       	pop	r1
 840:	18 95       	reti

00000842 <suart_init>:


void suart_init( void )
{
	// Enable interrupt
	sei();
 842:	78 94       	sei
	
	// Set the port HIGH
	SBIT(PORTD,STX) = 1;
 844:	5b 9a       	sbi	0x0b, 3	; 11

	// Set the prescaler to 1
	TCCR0B = (1 << CS00);	
 846:	81 e0       	ldi	r24, 0x01	; 1
 848:	85 bd       	out	0x25, r24	; 37
	
	// Enable output compare interrupt
	TIMSK0 = (1 << OCIE0A);		
 84a:	92 e0       	ldi	r25, 0x02	; 2
 84c:	90 93 6e 00 	sts	0x006E, r25

	// Falling edge
	EICRA = (1 << ISC01);
 850:	90 93 69 00 	sts	0x0069, r25
	
	// Enable edge interrupt			
	EIMSK = (1 << INT0);			
 854:	8d bb       	out	0x1d, r24	; 29

	// Nothing to send
	stx_count = 0;	
 856:	10 92 76 01 	sts	0x0176, r1
	
	// Nothing to receive			
	srx_done = 0;	
 85a:	10 92 77 01 	sts	0x0177, r1
	
	// Sets the output	        
	STXDDR |= 1 << STX;			
 85e:	53 9a       	sbi	0x0a, 3	; 10
 860:	08 95       	ret

00000862 <sgetchar>:
}


u8 sgetchar (void)      // Receive Byte
{
	while (!srx_done);      // wait until byte is received
 862:	80 91 77 01 	lds	r24, 0x0177
 866:	88 23       	and	r24, r24
 868:	e1 f3       	breq	.-8      	; 0x862 <sgetchar>
	srx_done = 0;
 86a:	10 92 77 01 	sts	0x0177, r1
	return srx_data;
}
 86e:	80 91 75 01 	lds	r24, 0x0175
 872:	08 95       	ret

00000874 <__vector_1>:


ISR (INT0_vect)    // RX start
{
 874:	1f 92       	push	r1
 876:	0f 92       	push	r0
 878:	0f b6       	in	r0, 0x3f	; 63
 87a:	0f 92       	push	r0
 87c:	11 24       	eor	r1, r1
 87e:	8f 93       	push	r24
	// scan 1.5 bits after start (to set timing right)
	OCR0B = TCNT0 + (u8)((BIT_TIME * 3) / 2);
 880:	86 b5       	in	r24, 0x26	; 38
 882:	8f 58       	subi	r24, 0x8F	; 143
 884:	88 bd       	out	0x28, r24	; 40

	// Clear bit storage
	srx_tmp = 0;  
 886:	10 92 78 01 	sts	0x0178, r1
	
	// Set bit-mask      
	srx_mask = 1;        
 88a:	81 e0       	ldi	r24, 0x01	; 1
 88c:	80 93 74 01 	sts	0x0174, r24
	if( !(SRXPIN & 1<<SRX))  {  // still low
 890:	4a 99       	sbic	0x09, 2	; 9
 892:	04 c0       	rjmp	.+8      	; 0x89c <__vector_1+0x28>
		EIMSK &= ~(1 << INT0);			// disable edge interrupt
 894:	e8 98       	cbi	0x1d, 0	; 29
		TIMSK0 = 1<<OCIE0A^1<<OCIE0B;  // wait for first bit
 896:	86 e0       	ldi	r24, 0x06	; 6
 898:	80 93 6e 00 	sts	0x006E, r24
	}
	TIFR0 = (1<<OCF0B);      // clear pending interrupt ? why does that output compare int occur?
 89c:	84 e0       	ldi	r24, 0x04	; 4
 89e:	85 bb       	out	0x15, r24	; 21
	EIFR |= (1 << INTF0);		// clear any pending edge interrupt
 8a0:	e0 9a       	sbi	0x1c, 0	; 28
}
 8a2:	8f 91       	pop	r24
 8a4:	0f 90       	pop	r0
 8a6:	0f be       	out	0x3f, r0	; 63
 8a8:	0f 90       	pop	r0
 8aa:	1f 90       	pop	r1
 8ac:	18 95       	reti

000008ae <__vector_15>:


ISR (TIMER0_COMPB_vect)
{
 8ae:	1f 92       	push	r1
 8b0:	0f 92       	push	r0
 8b2:	0f b6       	in	r0, 0x3f	; 63
 8b4:	0f 92       	push	r0
 8b6:	11 24       	eor	r1, r1
 8b8:	8f 93       	push	r24
 8ba:	9f 93       	push	r25
	u8 in = SRXPIN;      // scan RX line
 8bc:	99 b1       	in	r25, 0x09	; 9

	if (srx_mask) {
 8be:	80 91 74 01 	lds	r24, 0x0174
 8c2:	88 23       	and	r24, r24
 8c4:	71 f0       	breq	.+28     	; 0x8e2 <__vector_15+0x34>
		if (in & 1 << SRX)
 8c6:	92 ff       	sbrs	r25, 2
 8c8:	05 c0       	rjmp	.+10     	; 0x8d4 <__vector_15+0x26>
			srx_tmp |= srx_mask;
 8ca:	90 91 78 01 	lds	r25, 0x0178
 8ce:	98 2b       	or	r25, r24
 8d0:	90 93 78 01 	sts	0x0178, r25
		srx_mask <<= 1; 
 8d4:	88 0f       	add	r24, r24
 8d6:	80 93 74 01 	sts	0x0174, r24
		OCR0B += BIT_TIME;      // next bit slice
 8da:	88 b5       	in	r24, 0x28	; 40
 8dc:	8f 55       	subi	r24, 0x5F	; 95
 8de:	88 bd       	out	0x28, r24	; 40
 8e0:	0c c0       	rjmp	.+24     	; 0x8fa <__vector_15+0x4c>
		} else {
		srx_done = 1;      // mark RX data valid
 8e2:	81 e0       	ldi	r24, 0x01	; 1
 8e4:	80 93 77 01 	sts	0x0177, r24
		srx_data = srx_tmp;      // store RX data
 8e8:	90 91 78 01 	lds	r25, 0x0178
 8ec:	90 93 75 01 	sts	0x0175, r25

		TIMSK0 = 1<<OCIE0A;        // enable TX and wait for start
 8f0:	92 e0       	ldi	r25, 0x02	; 2
 8f2:	90 93 6e 00 	sts	0x006E, r25
		EIFR |= (1 << INTF0);		// clear any pending edge interrupt: This hinders the in0-vect from beeing triggerd again just now which may occur by falling edges in the serial data bits
 8f6:	e0 9a       	sbi	0x1c, 0	; 28
		EIMSK = 1 << INT0;	// Re-enable edge interrupt
 8f8:	8d bb       	out	0x1d, r24	; 29
	}

}
 8fa:	9f 91       	pop	r25
 8fc:	8f 91       	pop	r24
 8fe:	0f 90       	pop	r0
 900:	0f be       	out	0x3f, r0	; 63
 902:	0f 90       	pop	r0
 904:	1f 90       	pop	r1
 906:	18 95       	reti

00000908 <sputchar>:


void sputchar (u8 val)      // Send byte
{
	// Until last byte is finished
	while (stx_count);      
 908:	90 91 76 01 	lds	r25, 0x0176
 90c:	91 11       	cpse	r25, r1
 90e:	fc cf       	rjmp	.-8      	; 0x908 <sputchar>
	stx_data = ~val;      // Invert data for Stop bit generation
 910:	80 95       	com	r24
 912:	80 93 73 01 	sts	0x0173, r24
	stx_count = 10;      // 10 bits: Start + data + Stop
 916:	8a e0       	ldi	r24, 0x0A	; 10
 918:	80 93 76 01 	sts	0x0176, r24
 91c:	08 95       	ret

0000091e <__vector_14>:
	sputchar (*txt++);
}


ISR (TIMER0_COMPA_vect)    // TX bit
{
 91e:	1f 92       	push	r1
 920:	0f 92       	push	r0
 922:	0f b6       	in	r0, 0x3f	; 63
 924:	0f 92       	push	r0
 926:	11 24       	eor	r1, r1
 928:	8f 93       	push	r24
 92a:	9f 93       	push	r25
	u8 dout;
	u8 count;

	OCR0A += BIT_TIME;      // Next bit slice
 92c:	87 b5       	in	r24, 0x27	; 39
 92e:	8f 55       	subi	r24, 0x5F	; 95
 930:	87 bd       	out	0x27, r24	; 39
	count = stx_count;
 932:	80 91 76 01 	lds	r24, 0x0176

	if (count) {
 936:	88 23       	and	r24, r24
 938:	99 f0       	breq	.+38     	; 0x960 <__vector_14+0x42>
		stx_count = --count;    // Count down
 93a:	81 50       	subi	r24, 0x01	; 1
 93c:	80 93 76 01 	sts	0x0176, r24

		dout = 0;
		if (count != 9) {      // No start bit
 940:	89 30       	cpi	r24, 0x09	; 9
 942:	49 f0       	breq	.+18     	; 0x956 <__vector_14+0x38>
			if (!(stx_data & 1))    // Test inverted data
 944:	80 91 73 01 	lds	r24, 0x0173
 948:	98 2f       	mov	r25, r24
 94a:	90 95       	com	r25
 94c:	91 70       	andi	r25, 0x01	; 1

			dout = 1;
			stx_data >>= 1;      // Shift zero in from left
 94e:	86 95       	lsr	r24
 950:	80 93 73 01 	sts	0x0173, r24
 954:	01 c0       	rjmp	.+2      	; 0x958 <__vector_14+0x3a>
	count = stx_count;

	if (count) {
		stx_count = --count;    // Count down

		dout = 0;
 956:	90 e0       	ldi	r25, 0x00	; 0

			dout = 1;
			stx_data >>= 1;      // Shift zero in from left
		}

		SBIT(PORTD,STX) = dout;
 958:	90 fd       	sbrc	r25, 0
 95a:	5b 9a       	sbi	0x0b, 3	; 11
 95c:	90 ff       	sbrs	r25, 0
 95e:	5b 98       	cbi	0x0b, 3	; 11
	}
}
 960:	9f 91       	pop	r25
 962:	8f 91       	pop	r24
 964:	0f 90       	pop	r0
 966:	0f be       	out	0x3f, r0	; 63
 968:	0f 90       	pop	r0
 96a:	1f 90       	pop	r1
 96c:	18 95       	reti

0000096e <Write_Byte>:
	Write_Byte(LCD_ADDR, (bits & ~ENABLE));
	_delay_ms(5);
		
}

void Write_Byte(uint8_t addr, uint8_t bits){
 96e:	cf 93       	push	r28
 970:	df 93       	push	r29
 972:	c8 2f       	mov	r28, r24
 974:	d6 2f       	mov	r29, r22
			
	//Sends the start condition
	TWCR = (1<<TWINT) | (1<<TWSTA) | (1<<TWEN);
 976:	84 ea       	ldi	r24, 0xA4	; 164
 978:	80 93 bc 00 	sts	0x00BC, r24
		
	while(!TWI_Busy());
 97c:	0e 94 7a 05 	call	0xaf4	; 0xaf4 <TWI_Busy>
 980:	89 2b       	or	r24, r25
 982:	e1 f3       	breq	.-8      	; 0x97c <Write_Byte+0xe>
	if((TWSR & MASK) != START)Error(START);
 984:	80 91 b9 00 	lds	r24, 0x00B9
 988:	88 7f       	andi	r24, 0xF8	; 248
 98a:	88 30       	cpi	r24, 0x08	; 8
 98c:	21 f0       	breq	.+8      	; 0x996 <Write_Byte+0x28>
 98e:	88 e0       	ldi	r24, 0x08	; 8
 990:	90 e0       	ldi	r25, 0x00	; 0
 992:	0e 94 46 02 	call	0x48c	; 0x48c <Error>
		
	//Loads the slave address and set the R/W bit to 0
	TWDR = (addr<<1) | LCD_WRITE;
 996:	cc 0f       	add	r28, r28
 998:	c0 93 bb 00 	sts	0x00BB, r28
	TWCR = (1<<TWINT) | (1<<TWEN); 
 99c:	84 e8       	ldi	r24, 0x84	; 132
 99e:	80 93 bc 00 	sts	0x00BC, r24
		
	while(!TWI_Busy());
 9a2:	0e 94 7a 05 	call	0xaf4	; 0xaf4 <TWI_Busy>
 9a6:	89 2b       	or	r24, r25
 9a8:	e1 f3       	breq	.-8      	; 0x9a2 <Write_Byte+0x34>
	if((TWSR & MASK) !=  MT_ADDRESS_ACK)Error((TWSR & MASK));
 9aa:	80 91 b9 00 	lds	r24, 0x00B9
 9ae:	88 7f       	andi	r24, 0xF8	; 248
 9b0:	88 31       	cpi	r24, 0x18	; 24
 9b2:	31 f0       	breq	.+12     	; 0x9c0 <Write_Byte+0x52>
 9b4:	80 91 b9 00 	lds	r24, 0x00B9
 9b8:	88 7f       	andi	r24, 0xF8	; 248
 9ba:	90 e0       	ldi	r25, 0x00	; 0
 9bc:	0e 94 46 02 	call	0x48c	; 0x48c <Error>
		
	//Sends the data to the slave
	TWDR = bits; //4bits
 9c0:	d0 93 bb 00 	sts	0x00BB, r29
	TWCR = (1<<TWINT) | (1<<TWEN);
 9c4:	84 e8       	ldi	r24, 0x84	; 132
 9c6:	80 93 bc 00 	sts	0x00BC, r24
	
	while(!TWI_Busy());
 9ca:	0e 94 7a 05 	call	0xaf4	; 0xaf4 <TWI_Busy>
 9ce:	89 2b       	or	r24, r25
 9d0:	e1 f3       	breq	.-8      	; 0x9ca <Write_Byte+0x5c>
	if((TWSR & MASK) !=  MT_BYTE_ACK)Error((TWSR & MASK));
 9d2:	80 91 b9 00 	lds	r24, 0x00B9
 9d6:	88 7f       	andi	r24, 0xF8	; 248
 9d8:	88 32       	cpi	r24, 0x28	; 40
 9da:	31 f0       	breq	.+12     	; 0x9e8 <Write_Byte+0x7a>
 9dc:	80 91 b9 00 	lds	r24, 0x00B9
 9e0:	88 7f       	andi	r24, 0xF8	; 248
 9e2:	90 e0       	ldi	r25, 0x00	; 0
 9e4:	0e 94 46 02 	call	0x48c	; 0x48c <Error>
		
	//Sends the stop condition
	TWCR = (1<<TWINT) | (1<<TWEN) | (1<<TWSTO);
 9e8:	84 e9       	ldi	r24, 0x94	; 148
 9ea:	80 93 bc 00 	sts	0x00BC, r24
	
}
 9ee:	df 91       	pop	r29
 9f0:	cf 91       	pop	r28
 9f2:	08 95       	ret

000009f4 <LCD_Toggle_enable>:
	Write_Byte(LCD_ADDR, bits_low);
	LCD_Toggle_enable(bits_low);
	
}

void LCD_Toggle_enable(uint8_t bits){
 9f4:	cf 93       	push	r28
 9f6:	c8 2f       	mov	r28, r24
 9f8:	81 ee       	ldi	r24, 0xE1	; 225
 9fa:	94 e0       	ldi	r25, 0x04	; 4
 9fc:	01 97       	sbiw	r24, 0x01	; 1
 9fe:	f1 f7       	brne	.-4      	; 0x9fc <LCD_Toggle_enable+0x8>
 a00:	00 c0       	rjmp	.+0      	; 0xa02 <LCD_Toggle_enable+0xe>
 a02:	00 00       	nop
	
	// Toggles the enable pin on the display to activate the code
//	_delay_ms(DELAY_MS*5);
	_delay_ms(5);
	Write_Byte(LCD_ADDR, (bits | ENABLE));
 a04:	6c 2f       	mov	r22, r28
 a06:	64 60       	ori	r22, 0x04	; 4
 a08:	87 e2       	ldi	r24, 0x27	; 39
 a0a:	0e 94 b7 04 	call	0x96e	; 0x96e <Write_Byte>
 a0e:	81 ee       	ldi	r24, 0xE1	; 225
 a10:	94 e0       	ldi	r25, 0x04	; 4
 a12:	01 97       	sbiw	r24, 0x01	; 1
 a14:	f1 f7       	brne	.-4      	; 0xa12 <LCD_Toggle_enable+0x1e>
 a16:	00 c0       	rjmp	.+0      	; 0xa18 <LCD_Toggle_enable+0x24>
 a18:	00 00       	nop
	_delay_ms(5);
	Write_Byte(LCD_ADDR, (bits & ~ENABLE));
 a1a:	6c 2f       	mov	r22, r28
 a1c:	6b 7f       	andi	r22, 0xFB	; 251
 a1e:	87 e2       	ldi	r24, 0x27	; 39
 a20:	0e 94 b7 04 	call	0x96e	; 0x96e <Write_Byte>
 a24:	81 ee       	ldi	r24, 0xE1	; 225
 a26:	94 e0       	ldi	r25, 0x04	; 4
 a28:	01 97       	sbiw	r24, 0x01	; 1
 a2a:	f1 f7       	brne	.-4      	; 0xa28 <LCD_Toggle_enable+0x34>
 a2c:	00 c0       	rjmp	.+0      	; 0xa2e <LCD_Toggle_enable+0x3a>
 a2e:	00 00       	nop
	_delay_ms(5);
		
}
 a30:	cf 91       	pop	r28
 a32:	08 95       	ret

00000a34 <LCD_Byte>:
	LCD_Byte(0x01, LCD_CMD); 
	_delay_ms(DELAY_MS*5); //5 ms delay
	
}

void LCD_Byte(uint8_t bits, uint8_t mode){
 a34:	cf 93       	push	r28
 a36:	df 93       	push	r29
 a38:	c6 2f       	mov	r28, r22
 a3a:	c8 60       	ori	r28, 0x08	; 8
	
	uint8_t bits_high, bits_low;
	
	//Divides the data in two 4 bit values
	bits_high = mode | (bits & 0xF0) | LCD_BACKLIGHT;
 a3c:	d8 2f       	mov	r29, r24
 a3e:	d0 7f       	andi	r29, 0xF0	; 240
 a40:	dc 2b       	or	r29, r28
	bits_low = mode | ((bits<<4) & 0xF0) | LCD_BACKLIGHT;
 a42:	90 e1       	ldi	r25, 0x10	; 16
 a44:	89 9f       	mul	r24, r25
 a46:	90 01       	movw	r18, r0
 a48:	11 24       	eor	r1, r1
 a4a:	c2 2b       	or	r28, r18
	
	// Send the high bits
	Write_Byte(LCD_ADDR, bits_high);
 a4c:	6d 2f       	mov	r22, r29
 a4e:	87 e2       	ldi	r24, 0x27	; 39
 a50:	0e 94 b7 04 	call	0x96e	; 0x96e <Write_Byte>
	LCD_Toggle_enable(bits_high);
 a54:	8d 2f       	mov	r24, r29
 a56:	0e 94 fa 04 	call	0x9f4	; 0x9f4 <LCD_Toggle_enable>
	
	// Send the low bits
	Write_Byte(LCD_ADDR, bits_low);
 a5a:	6c 2f       	mov	r22, r28
 a5c:	87 e2       	ldi	r24, 0x27	; 39
 a5e:	0e 94 b7 04 	call	0x96e	; 0x96e <Write_Byte>
	LCD_Toggle_enable(bits_low);
 a62:	8c 2f       	mov	r24, r28
 a64:	0e 94 fa 04 	call	0x9f4	; 0x9f4 <LCD_Toggle_enable>
	
}
 a68:	df 91       	pop	r29
 a6a:	cf 91       	pop	r28
 a6c:	08 95       	ret

00000a6e <LCD_Init>:


void LCD_Init(void){
	
	// Basic initialization
	LCD_Byte(0x33, LCD_CMD); 
 a6e:	60 e0       	ldi	r22, 0x00	; 0
 a70:	83 e3       	ldi	r24, 0x33	; 51
 a72:	0e 94 1a 05 	call	0xa34	; 0xa34 <LCD_Byte>
	LCD_Byte(0x32, LCD_CMD);
 a76:	60 e0       	ldi	r22, 0x00	; 0
 a78:	82 e3       	ldi	r24, 0x32	; 50
 a7a:	0e 94 1a 05 	call	0xa34	; 0xa34 <LCD_Byte>
	 
	// Entry mode, move cursor left to right 
	LCD_Byte(0x06, LCD_CMD); 
 a7e:	60 e0       	ldi	r22, 0x00	; 0
 a80:	86 e0       	ldi	r24, 0x06	; 6
 a82:	0e 94 1a 05 	call	0xa34	; 0xa34 <LCD_Byte>
	
	// Display on, Cursor off, Blink off
	LCD_Byte(0x0C, LCD_CMD); 
 a86:	60 e0       	ldi	r22, 0x00	; 0
 a88:	8c e0       	ldi	r24, 0x0C	; 12
 a8a:	0e 94 1a 05 	call	0xa34	; 0xa34 <LCD_Byte>
	
	// Set to 4-bit ooperation, 2 lines and 5x7 dots
	LCD_Byte(0x28, LCD_CMD); 
 a8e:	60 e0       	ldi	r22, 0x00	; 0
 a90:	88 e2       	ldi	r24, 0x28	; 40
 a92:	0e 94 1a 05 	call	0xa34	; 0xa34 <LCD_Byte>
	
	// Clears display and DDRAM
	LCD_Byte(0x01, LCD_CMD); 
 a96:	60 e0       	ldi	r22, 0x00	; 0
 a98:	81 e0       	ldi	r24, 0x01	; 1
 a9a:	0e 94 1a 05 	call	0xa34	; 0xa34 <LCD_Byte>
 a9e:	8f e0       	ldi	r24, 0x0F	; 15
 aa0:	97 e2       	ldi	r25, 0x27	; 39
 aa2:	01 97       	sbiw	r24, 0x01	; 1
 aa4:	f1 f7       	brne	.-4      	; 0xaa2 <LCD_Init+0x34>
 aa6:	00 c0       	rjmp	.+0      	; 0xaa8 <LCD_Init+0x3a>
 aa8:	00 00       	nop
 aaa:	08 95       	ret

00000aac <LCD_String>:
	//Sends the stop condition
	TWCR = (1<<TWINT) | (1<<TWEN) | (1<<TWSTO);
	
}

void LCD_String(uint8_t *text){
 aac:	cf 93       	push	r28
 aae:	df 93       	push	r29
 ab0:	ec 01       	movw	r28, r24
	
	while(*text){
 ab2:	88 81       	ld	r24, Y
 ab4:	88 23       	and	r24, r24
 ab6:	39 f0       	breq	.+14     	; 0xac6 <LCD_String+0x1a>
 ab8:	21 96       	adiw	r28, 0x01	; 1
		LCD_Byte(*text++, LCD_CHR);
 aba:	61 e0       	ldi	r22, 0x01	; 1
 abc:	0e 94 1a 05 	call	0xa34	; 0xa34 <LCD_Byte>
	
}

void LCD_String(uint8_t *text){
	
	while(*text){
 ac0:	89 91       	ld	r24, Y+
 ac2:	81 11       	cpse	r24, r1
 ac4:	fa cf       	rjmp	.-12     	; 0xaba <LCD_String+0xe>
		LCD_Byte(*text++, LCD_CHR);
	}
}
 ac6:	df 91       	pop	r29
 ac8:	cf 91       	pop	r28
 aca:	08 95       	ret

00000acc <TWI_Master_Init>:


void TWI_Master_Init (void){
	
	//Sets the power reduction register for TWI to 0.
	PRR &= ~(1<<PRTWI);
 acc:	e4 e6       	ldi	r30, 0x64	; 100
 ace:	f0 e0       	ldi	r31, 0x00	; 0
 ad0:	80 81       	ld	r24, Z
 ad2:	8f 77       	andi	r24, 0x7F	; 127
 ad4:	80 83       	st	Z, r24
	
	//Sets the prescaler to 1 by setting TWPS1 and 0 to 0
	TWSR &= ~(1<<TWPS1) & ~(1<<TWPS0); 
 ad6:	e9 eb       	ldi	r30, 0xB9	; 185
 ad8:	f0 e0       	ldi	r31, 0x00	; 0
 ada:	80 81       	ld	r24, Z
 adc:	8c 7f       	andi	r24, 0xFC	; 252
 ade:	80 83       	st	Z, r24
	
	//Sets the speed of TWI to 100khz
	TWBR = 0x20;
 ae0:	80 e2       	ldi	r24, 0x20	; 32
 ae2:	80 93 b8 00 	sts	0x00B8, r24
		TWWC - Write Collision Flag
		TWEN - Enable Bit
		TWIE - Interrupt Enable

	************************************************************************/
	TWDR = 0xFF;
 ae6:	8f ef       	ldi	r24, 0xFF	; 255
 ae8:	80 93 bb 00 	sts	0x00BB, r24
	TWCR = (0<<TWINT) | (0<<TWSTA) | (0<<TWSTO) | (0<<TWWC) | (1<<TWIE) | (1<<TWEN);
 aec:	85 e0       	ldi	r24, 0x05	; 5
 aee:	80 93 bc 00 	sts	0x00BC, r24
 af2:	08 95       	ret

00000af4 <TWI_Busy>:

}

int TWI_Busy(void){
	//Returns 0 if the MCU is busy
	return TWCR & (1<<TWINT);
 af4:	80 91 bc 00 	lds	r24, 0x00BC
 af8:	80 78       	andi	r24, 0x80	; 128
}
 afa:	90 e0       	ldi	r25, 0x00	; 0
 afc:	08 95       	ret

00000afe <__divmodhi4>:
 afe:	97 fb       	bst	r25, 7
 b00:	07 2e       	mov	r0, r23
 b02:	16 f4       	brtc	.+4      	; 0xb08 <__divmodhi4+0xa>
 b04:	00 94       	com	r0
 b06:	07 d0       	rcall	.+14     	; 0xb16 <__divmodhi4_neg1>
 b08:	77 fd       	sbrc	r23, 7
 b0a:	09 d0       	rcall	.+18     	; 0xb1e <__divmodhi4_neg2>
 b0c:	0e 94 d4 05 	call	0xba8	; 0xba8 <__udivmodhi4>
 b10:	07 fc       	sbrc	r0, 7
 b12:	05 d0       	rcall	.+10     	; 0xb1e <__divmodhi4_neg2>
 b14:	3e f4       	brtc	.+14     	; 0xb24 <__divmodhi4_exit>

00000b16 <__divmodhi4_neg1>:
 b16:	90 95       	com	r25
 b18:	81 95       	neg	r24
 b1a:	9f 4f       	sbci	r25, 0xFF	; 255
 b1c:	08 95       	ret

00000b1e <__divmodhi4_neg2>:
 b1e:	70 95       	com	r23
 b20:	61 95       	neg	r22
 b22:	7f 4f       	sbci	r23, 0xFF	; 255

00000b24 <__divmodhi4_exit>:
 b24:	08 95       	ret

00000b26 <__udivmodsi4>:
 b26:	a1 e2       	ldi	r26, 0x21	; 33
 b28:	1a 2e       	mov	r1, r26
 b2a:	aa 1b       	sub	r26, r26
 b2c:	bb 1b       	sub	r27, r27
 b2e:	fd 01       	movw	r30, r26
 b30:	0d c0       	rjmp	.+26     	; 0xb4c <__udivmodsi4_ep>

00000b32 <__udivmodsi4_loop>:
 b32:	aa 1f       	adc	r26, r26
 b34:	bb 1f       	adc	r27, r27
 b36:	ee 1f       	adc	r30, r30
 b38:	ff 1f       	adc	r31, r31
 b3a:	a2 17       	cp	r26, r18
 b3c:	b3 07       	cpc	r27, r19
 b3e:	e4 07       	cpc	r30, r20
 b40:	f5 07       	cpc	r31, r21
 b42:	20 f0       	brcs	.+8      	; 0xb4c <__udivmodsi4_ep>
 b44:	a2 1b       	sub	r26, r18
 b46:	b3 0b       	sbc	r27, r19
 b48:	e4 0b       	sbc	r30, r20
 b4a:	f5 0b       	sbc	r31, r21

00000b4c <__udivmodsi4_ep>:
 b4c:	66 1f       	adc	r22, r22
 b4e:	77 1f       	adc	r23, r23
 b50:	88 1f       	adc	r24, r24
 b52:	99 1f       	adc	r25, r25
 b54:	1a 94       	dec	r1
 b56:	69 f7       	brne	.-38     	; 0xb32 <__udivmodsi4_loop>
 b58:	60 95       	com	r22
 b5a:	70 95       	com	r23
 b5c:	80 95       	com	r24
 b5e:	90 95       	com	r25
 b60:	9b 01       	movw	r18, r22
 b62:	ac 01       	movw	r20, r24
 b64:	bd 01       	movw	r22, r26
 b66:	cf 01       	movw	r24, r30
 b68:	08 95       	ret

00000b6a <__divmodsi4>:
 b6a:	05 2e       	mov	r0, r21
 b6c:	97 fb       	bst	r25, 7
 b6e:	1e f4       	brtc	.+6      	; 0xb76 <__divmodsi4+0xc>
 b70:	00 94       	com	r0
 b72:	0e 94 cc 05 	call	0xb98	; 0xb98 <__negsi2>
 b76:	57 fd       	sbrc	r21, 7
 b78:	07 d0       	rcall	.+14     	; 0xb88 <__divmodsi4_neg2>
 b7a:	0e 94 93 05 	call	0xb26	; 0xb26 <__udivmodsi4>
 b7e:	07 fc       	sbrc	r0, 7
 b80:	03 d0       	rcall	.+6      	; 0xb88 <__divmodsi4_neg2>
 b82:	4e f4       	brtc	.+18     	; 0xb96 <__divmodsi4_exit>
 b84:	0c 94 cc 05 	jmp	0xb98	; 0xb98 <__negsi2>

00000b88 <__divmodsi4_neg2>:
 b88:	50 95       	com	r21
 b8a:	40 95       	com	r20
 b8c:	30 95       	com	r19
 b8e:	21 95       	neg	r18
 b90:	3f 4f       	sbci	r19, 0xFF	; 255
 b92:	4f 4f       	sbci	r20, 0xFF	; 255
 b94:	5f 4f       	sbci	r21, 0xFF	; 255

00000b96 <__divmodsi4_exit>:
 b96:	08 95       	ret

00000b98 <__negsi2>:
 b98:	90 95       	com	r25
 b9a:	80 95       	com	r24
 b9c:	70 95       	com	r23
 b9e:	61 95       	neg	r22
 ba0:	7f 4f       	sbci	r23, 0xFF	; 255
 ba2:	8f 4f       	sbci	r24, 0xFF	; 255
 ba4:	9f 4f       	sbci	r25, 0xFF	; 255
 ba6:	08 95       	ret

00000ba8 <__udivmodhi4>:
 ba8:	aa 1b       	sub	r26, r26
 baa:	bb 1b       	sub	r27, r27
 bac:	51 e1       	ldi	r21, 0x11	; 17
 bae:	07 c0       	rjmp	.+14     	; 0xbbe <__udivmodhi4_ep>

00000bb0 <__udivmodhi4_loop>:
 bb0:	aa 1f       	adc	r26, r26
 bb2:	bb 1f       	adc	r27, r27
 bb4:	a6 17       	cp	r26, r22
 bb6:	b7 07       	cpc	r27, r23
 bb8:	10 f0       	brcs	.+4      	; 0xbbe <__udivmodhi4_ep>
 bba:	a6 1b       	sub	r26, r22
 bbc:	b7 0b       	sbc	r27, r23

00000bbe <__udivmodhi4_ep>:
 bbe:	88 1f       	adc	r24, r24
 bc0:	99 1f       	adc	r25, r25
 bc2:	5a 95       	dec	r21
 bc4:	a9 f7       	brne	.-22     	; 0xbb0 <__udivmodhi4_loop>
 bc6:	80 95       	com	r24
 bc8:	90 95       	com	r25
 bca:	bc 01       	movw	r22, r24
 bcc:	cd 01       	movw	r24, r26
 bce:	08 95       	ret

00000bd0 <_exit>:
 bd0:	f8 94       	cli

00000bd2 <__stop_program>:
 bd2:	ff cf       	rjmp	.-2      	; 0xbd2 <__stop_program>
